
strings:     file format elf32-littlearm

Disassembly of section .text:

c0000000 <_romInit>:
c0000000:	e3a01000 	mov	r1, #0	; 0x0
c0000004:	ee011f10 	mcr	15, 0, r1, cr1, cr0, {0}
c0000008:	e1a00000 	nop			(mov r0,r0)
c000000c:	e1a00000 	nop			(mov r0,r0)
c0000010:	e1a00000 	nop			(mov r0,r0)
c0000014:	e59fd010 	ldr	sp, [pc, #10]	; c000002c <L$_STACK_ADDR>
c0000018:	e3a0b000 	mov	fp, #0	; 0x0
c000001c:	e59f1004 	ldr	r1, [pc, #4]	; c0000028 <L$_rStrtInRom>
c0000020:	e1a0f001 	mov	pc, r1

c0000024 <Halt>:
c0000024:	eafffffe 	b	c0000024 <Halt>

c0000028 <L$_rStrtInRom>:
c0000028:	c00002ec 	andgt	r0, r0, ip, ror #5

c000002c <L$_STACK_ADDR>:
c000002c:	c0004000 	andgt	r4, r0, r0

c0000030 <putnws>:
c0000030:	e1a0c00d 	mov	ip, sp
c0000034:	e92dd800 	stmdb	sp!, {fp, ip, lr, pc}
c0000038:	eb000092 	bl	c0000288 <stripwhitespace>
c000003c:	e1a02001 	mov	r2, r1
c0000040:	e1a01000 	mov	r1, r0
c0000044:	e1a00002 	mov	r0, r2
c0000048:	eb000000 	bl	c0000050 <putstring>
c000004c:	e91ba800 	ldmdb	fp, {fp, sp, pc}

c0000050 <putstring>:
c0000050:	e3a02102 	mov	r2, #-2147483648	; 0x80000000
c0000054:	e3a03801 	mov	r3, #65536	; 0x10000
c0000058:	e0040093 	mul	r4, r3, r0
c000005c:	e0822004 	add	r2, r2, r4
c0000060:	e3a05000 	mov	r5, #0	; 0x0

c0000064 <string_loop>:
c0000064:	e7d14005 	ldrb	r4, [r1, r5]
c0000068:	e2855001 	add	r5, r5, #1	; 0x1
c000006c:	e3540000 	cmp	r4, #0	; 0x0
c0000070:	0a000004 	beq	c0000088 <exit_loop>

c0000074 <char_write>:
c0000074:	e5d26020 	ldrb	r6, [r2, #32]
c0000078:	e3160004 	tst	r6, #4	; 0x4
c000007c:	0afffffc 	beq	c0000074 <char_write>
c0000080:	e5c24014 	strb	r4, [r2, #20]
c0000084:	eafffff6 	b	c0000064 <string_loop>

c0000088 <exit_loop>:
c0000088:	e1a0f00e 	mov	pc, lr

c000008c <wb>:
c000008c:	e5d12020 	ldrb	r2, [r1, #32]
c0000090:	e3120004 	tst	r2, #4	; 0x4
c0000094:	0afffffc 	beq	c000008c <wb>
c0000098:	e5c10014 	strb	r0, [r1, #20]
c000009c:	e1a0f00e 	mov	pc, lr

c00000a0 <ws>:
c00000a0:	e1a0400e 	mov	r4, lr
c00000a4:	e3a06000 	mov	r6, #0	; 0x0

c00000a8 <ws_loop>:
c00000a8:	e7d50006 	ldrb	r0, [r5, r6]
c00000ac:	e3500000 	cmp	r0, #0	; 0x0
c00000b0:	0a000002 	beq	c00000c0 <halt>
c00000b4:	e2866001 	add	r6, r6, #1	; 0x1
c00000b8:	ebfffff3 	bl	c000008c <wb>
c00000bc:	eafffff9 	b	c00000a8 <ws_loop>

c00000c0 <halt>:
c00000c0:	eafffffe 	b	c00000c0 <halt>
c00000c4:	e1a00000 	nop			(mov r0,r0)
c00000c8:	e1a00000 	nop			(mov r0,r0)
c00000cc:	e1a00000 	nop			(mov r0,r0)
c00000d0:	e1a00000 	nop			(mov r0,r0)
c00000d4:	e1a00000 	nop			(mov r0,r0)
c00000d8:	e1a00000 	nop			(mov r0,r0)
c00000dc:	e1a00000 	nop			(mov r0,r0)
c00000e0:	e1a00000 	nop			(mov r0,r0)
c00000e4:	e1a00000 	nop			(mov r0,r0)
c00000e8:	e1a00000 	nop			(mov r0,r0)
c00000ec:	e1a00000 	nop			(mov r0,r0)
c00000f0:	e1a00000 	nop			(mov r0,r0)
c00000f4:	e1a00000 	nop			(mov r0,r0)
c00000f8:	e1a00000 	nop			(mov r0,r0)
c00000fc:	e1a00000 	nop			(mov r0,r0)
c0000100:	e1a00000 	nop			(mov r0,r0)
c0000104:	e1a00000 	nop			(mov r0,r0)
c0000108:	e1a00000 	nop			(mov r0,r0)
c000010c:	e1a00000 	nop			(mov r0,r0)
c0000110:	e1a00000 	nop			(mov r0,r0)
c0000114:	e1a00000 	nop			(mov r0,r0)
c0000118:	e1a00000 	nop			(mov r0,r0)
c000011c:	e1a00000 	nop			(mov r0,r0)
c0000120:	e1a00000 	nop			(mov r0,r0)
c0000124:	e1a00000 	nop			(mov r0,r0)
c0000128:	e1a00000 	nop			(mov r0,r0)
c000012c:	e1a00000 	nop			(mov r0,r0)
c0000130:	e1a00000 	nop			(mov r0,r0)
c0000134:	e1a00000 	nop			(mov r0,r0)
c0000138:	e1a00000 	nop			(mov r0,r0)
c000013c:	e1a00000 	nop			(mov r0,r0)
c0000140:	e1a00000 	nop			(mov r0,r0)
c0000144:	e1a00000 	nop			(mov r0,r0)
c0000148:	e1a00000 	nop			(mov r0,r0)
c000014c:	e1a00000 	nop			(mov r0,r0)
c0000150:	e1a00000 	nop			(mov r0,r0)
c0000154:	e1a00000 	nop			(mov r0,r0)
c0000158:	e1a00000 	nop			(mov r0,r0)
c000015c:	e1a00000 	nop			(mov r0,r0)
c0000160:	e1a00000 	nop			(mov r0,r0)
c0000164:	e1a00000 	nop			(mov r0,r0)
c0000168:	e1a00000 	nop			(mov r0,r0)
c000016c:	e1a00000 	nop			(mov r0,r0)
c0000170:	e1a00000 	nop			(mov r0,r0)
c0000174:	e1a00000 	nop			(mov r0,r0)
c0000178:	e1a00000 	nop			(mov r0,r0)
c000017c:	e1a00000 	nop			(mov r0,r0)
c0000180:	e1a00000 	nop			(mov r0,r0)
c0000184:	e1a00000 	nop			(mov r0,r0)
c0000188:	e1a00000 	nop			(mov r0,r0)
c000018c:	e1a00000 	nop			(mov r0,r0)
c0000190:	e1a00000 	nop			(mov r0,r0)
c0000194:	e1a00000 	nop			(mov r0,r0)
c0000198:	e1a00000 	nop			(mov r0,r0)
c000019c:	e1a00000 	nop			(mov r0,r0)
c00001a0:	e1a00000 	nop			(mov r0,r0)
c00001a4:	e1a00000 	nop			(mov r0,r0)
c00001a8:	e1a00000 	nop			(mov r0,r0)
c00001ac:	e1a00000 	nop			(mov r0,r0)
c00001b0:	e1a00000 	nop			(mov r0,r0)
c00001b4:	e1a00000 	nop			(mov r0,r0)
c00001b8:	e1a00000 	nop			(mov r0,r0)
c00001bc:	e1a00000 	nop			(mov r0,r0)
c00001c0:	e1a00000 	nop			(mov r0,r0)
c00001c4:	e1a00000 	nop			(mov r0,r0)
c00001c8:	e1a00000 	nop			(mov r0,r0)
c00001cc:	e1a00000 	nop			(mov r0,r0)
c00001d0:	e1a00000 	nop			(mov r0,r0)
c00001d4:	e1a00000 	nop			(mov r0,r0)
c00001d8:	e1a00000 	nop			(mov r0,r0)
c00001dc:	e1a00000 	nop			(mov r0,r0)
c00001e0:	e1a00000 	nop			(mov r0,r0)
c00001e4:	e1a00000 	nop			(mov r0,r0)
c00001e8:	e1a00000 	nop			(mov r0,r0)
c00001ec:	e1a00000 	nop			(mov r0,r0)
c00001f0:	e1a00000 	nop			(mov r0,r0)
c00001f4:	e1a00000 	nop			(mov r0,r0)
c00001f8:	e1a00000 	nop			(mov r0,r0)
c00001fc:	e1a00000 	nop			(mov r0,r0)
c0000200:	e1a00000 	nop			(mov r0,r0)
c0000204:	e1a00000 	nop			(mov r0,r0)
c0000208:	e1a00000 	nop			(mov r0,r0)
c000020c:	e1a00000 	nop			(mov r0,r0)
c0000210:	e1a00000 	nop			(mov r0,r0)
c0000214:	e1a00000 	nop			(mov r0,r0)
c0000218:	e1a00000 	nop			(mov r0,r0)
c000021c:	e1a00000 	nop			(mov r0,r0)
c0000220:	e1a00000 	nop			(mov r0,r0)
c0000224:	e1a00000 	nop			(mov r0,r0)
c0000228:	e1a00000 	nop			(mov r0,r0)
c000022c:	e1a00000 	nop			(mov r0,r0)
c0000230:	e1a00000 	nop			(mov r0,r0)
c0000234:	e1a00000 	nop			(mov r0,r0)
c0000238:	e1a00000 	nop			(mov r0,r0)
c000023c:	e1a00000 	nop			(mov r0,r0)
c0000240:	e1a00000 	nop			(mov r0,r0)
c0000244:	e1a00000 	nop			(mov r0,r0)
c0000248:	e1a00000 	nop			(mov r0,r0)
c000024c:	e1a00000 	nop			(mov r0,r0)
c0000250:	e1a00000 	nop			(mov r0,r0)

c0000254 <main>:
c0000254:	e1a0c00d 	mov	ip, sp
c0000258:	e92dd800 	stmdb	sp!, {fp, ip, lr, pc}
c000025c:	e24cb004 	sub	fp, ip, #4	; 0x4
c0000260:	e59f1014 	ldr	r1, [pc, #14]	; c000027c <main+0x28>
c0000264:	e3a00001 	mov	r0, #1	; 0x1
c0000268:	ebffff78 	bl	c0000050 <putstring>
c000026c:	e59f000c 	ldr	r0, [pc, #c]	; c0000280 <main+0x2c>
c0000270:	e3a01001 	mov	r1, #1	; 0x1
c0000274:	ebffff6d 	bl	c0000030 <putnws>
c0000278:	eafffffe 	b	c0000278 <main+0x24>
c000027c:	c0001584 	andgt	r1, r0, r4, lsl #11
c0000280:	c0001594 	mulgt	r0, r4, r5
c0000284:	e91ba800 	ldmdb	fp, {fp, sp, pc}

c0000288 <stripwhitespace>:
c0000288:	e1a0c00d 	mov	ip, sp
c000028c:	e92dd800 	stmdb	sp!, {fp, ip, lr, pc}
c0000290:	e24cb004 	sub	fp, ip, #4	; 0x4
c0000294:	e3a01000 	mov	r1, #0	; 0x0
c0000298:	e7d03001 	ldrb	r3, [r0, r1]
c000029c:	e1a02001 	mov	r2, r1
c00002a0:	e1530001 	cmp	r3, r1
c00002a4:	0a000009 	beq	c00002d0 <stripwhitespace+0x48>
c00002a8:	e7d03002 	ldrb	r3, [r0, r2]
c00002ac:	e3530020 	cmp	r3, #32	; 0x20
c00002b0:	0a000002 	beq	c00002c0 <stripwhitespace+0x38>
c00002b4:	e7d03002 	ldrb	r3, [r0, r2]
c00002b8:	e7c03001 	strb	r3, [r0, r1]
c00002bc:	e2811001 	add	r1, r1, #1	; 0x1
c00002c0:	e2822001 	add	r2, r2, #1	; 0x1
c00002c4:	e7d03002 	ldrb	r3, [r0, r2]
c00002c8:	e3530000 	cmp	r3, #0	; 0x0
c00002cc:	1afffff5 	bne	c00002a8 <stripwhitespace+0x20>
c00002d0:	e3a03000 	mov	r3, #0	; 0x0
c00002d4:	e7c03001 	strb	r3, [r0, r1]
c00002d8:	e91ba800 	ldmdb	fp, {fp, sp, pc}

c00002dc <__gccmain>:
c00002dc:	e1a0c00d 	mov	ip, sp
c00002e0:	e92dd800 	stmdb	sp!, {fp, ip, lr, pc}
c00002e4:	e24cb004 	sub	fp, ip, #4	; 0x4
c00002e8:	e91ba800 	ldmdb	fp, {fp, sp, pc}

c00002ec <crt0>:
c00002ec:	e1a0c00d 	mov	ip, sp
c00002f0:	e92dd800 	stmdb	sp!, {fp, ip, lr, pc}
c00002f4:	e24cb004 	sub	fp, ip, #4	; 0x4
c00002f8:	eb00004e 	bl	c0000438 <timer_init>
c00002fc:	eb0000d9 	bl	c0000668 <malloc_init>
c0000300:	e59f3020 	ldr	r3, [pc, #20]	; c0000328 <crt0+0x3c>
c0000304:	e593300c 	ldr	r3, [r3, #12]
c0000308:	e3530000 	cmp	r3, #0	; 0x0
c000030c:	0a000001 	beq	c0000318 <crt0+0x2c>
c0000310:	e1a0e00f 	mov	lr, pc
c0000314:	e1a0f003 	mov	pc, r3
c0000318:	e3a00000 	mov	r0, #0	; 0x0
c000031c:	e1a01000 	mov	r1, r0
c0000320:	ebffffcb 	bl	c0000254 <main>
c0000324:	e91ba800 	ldmdb	fp, {fp, sp, pc}
c0000328:	c0009738 	andgt	r9, r0, r8, lsr r7

c000032c <clear_timer>:
c000032c:	e1a0c00d 	mov	ip, sp
c0000330:	e92dd800 	stmdb	sp!, {fp, ip, lr, pc}
c0000334:	e24cb004 	sub	fp, ip, #4	; 0x4
c0000338:	e0800080 	add	r0, r0, r0, lsl #1
c000033c:	e1a00100 	mov	r0, r0, lsl #2
c0000340:	e59f3010 	ldr	r3, [pc, #10]	; c0000358 <clear_timer+0x2c>
c0000344:	e3a02000 	mov	r2, #0	; 0x0
c0000348:	e7832000 	str	r2, [r3, r0]
c000034c:	e2833004 	add	r3, r3, #4	; 0x4
c0000350:	e7832000 	str	r2, [r3, r0]
c0000354:	e91ba800 	ldmdb	fp, {fp, sp, pc}
c0000358:	c0009860 	andgt	r9, r0, r0, ror #16

c000035c <set_timer>:
c000035c:	e1a0c00d 	mov	ip, sp
c0000360:	e92dd800 	stmdb	sp!, {fp, ip, lr, pc}
c0000364:	e24cb004 	sub	fp, ip, #4	; 0x4
c0000368:	e0800080 	add	r0, r0, r0, lsl #1
c000036c:	e1a00100 	mov	r0, r0, lsl #2
c0000370:	e59f3010 	ldr	r3, [pc, #10]	; c0000388 <set_timer+0x2c>
c0000374:	e3a02000 	mov	r2, #0	; 0x0
c0000378:	e7831000 	str	r1, [r3, r0]
c000037c:	e2833004 	add	r3, r3, #4	; 0x4
c0000380:	e7832000 	str	r2, [r3, r0]
c0000384:	e91ba800 	ldmdb	fp, {fp, sp, pc}
c0000388:	c0009860 	andgt	r9, r0, r0, ror #16

c000038c <set_timer_fn>:
c000038c:	e1a0c00d 	mov	ip, sp
c0000390:	e92dd800 	stmdb	sp!, {fp, ip, lr, pc}
c0000394:	e24cb004 	sub	fp, ip, #4	; 0x4
c0000398:	e59f3008 	ldr	r3, [pc, #8]	; c00003a8 <set_timer_fn+0x1c>
c000039c:	e0800080 	add	r0, r0, r0, lsl #1
c00003a0:	e7831100 	str	r1, [r3, r0, lsl #2]
c00003a4:	e91ba800 	ldmdb	fp, {fp, sp, pc}
c00003a8:	c0009868 	andgt	r9, r0, r8, ror #16

c00003ac <time_interrupt>:
c00003ac:	e1a0c00d 	mov	ip, sp
c00003b0:	e92dd9f0 	stmdb	sp!, {r4, r5, r6, r7, r8, fp, ip, lr, pc}
c00003b4:	e24cb004 	sub	fp, ip, #4	; 0x4
c00003b8:	e3a05000 	mov	r5, #0	; 0x0
c00003bc:	e1a04005 	mov	r4, r5
c00003c0:	e3a08001 	mov	r8, #1	; 0x1
c00003c4:	e59f2064 	ldr	r2, [pc, #64]	; c0000430 <time_interrupt+0x84>
c00003c8:	e59f6064 	ldr	r6, [pc, #64]	; c0000434 <time_interrupt+0x88>
c00003cc:	e5923000 	ldr	r3, [r2]
c00003d0:	e2867004 	add	r7, r6, #4	; 0x4
c00003d4:	e0833008 	add	r3, r3, r8
c00003d8:	e5823000 	str	r3, [r2]
c00003dc:	e7943006 	ldr	r3, [r4, r6]
c00003e0:	e3530000 	cmp	r3, #0	; 0x0
c00003e4:	0a00000b 	beq	c0000418 <time_interrupt+0x6c>
c00003e8:	e2433001 	sub	r3, r3, #1	; 0x1
c00003ec:	e3530000 	cmp	r3, #0	; 0x0
c00003f0:	e7843006 	str	r3, [r4, r6]
c00003f4:	1a000007 	bne	c0000418 <time_interrupt+0x6c>
c00003f8:	e2863008 	add	r3, r6, #8	; 0x8
c00003fc:	e5878000 	str	r8, [r7]
c0000400:	e7933004 	ldr	r3, [r3, r4]
c0000404:	e3530000 	cmp	r3, #0	; 0x0
c0000408:	0a000002 	beq	c0000418 <time_interrupt+0x6c>
c000040c:	e1a00005 	mov	r0, r5
c0000410:	e1a0e00f 	mov	lr, pc
c0000414:	e1a0f003 	mov	pc, r3
c0000418:	e287700c 	add	r7, r7, #12	; 0xc
c000041c:	e284400c 	add	r4, r4, #12	; 0xc
c0000420:	e2855001 	add	r5, r5, #1	; 0x1
c0000424:	e3550001 	cmp	r5, #1	; 0x1
c0000428:	daffffeb 	ble	c00003dc <time_interrupt+0x30>
c000042c:	e91ba9f0 	ldmdb	fp, {r4, r5, r6, r7, r8, fp, sp, pc}
c0000430:	c0009878 	andgt	r9, r0, r8, ror r8
c0000434:	c0009860 	andgt	r9, r0, r0, ror #16

c0000438 <timer_init>:
c0000438:	e1a0c00d 	mov	ip, sp
c000043c:	e92dd800 	stmdb	sp!, {fp, ip, lr, pc}
c0000440:	e24cb004 	sub	fp, ip, #4	; 0x4
c0000444:	e3a01000 	mov	r1, #0	; 0x0
c0000448:	e3e00000 	mvn	r0, #0	; 0x0
c000044c:	e3a02001 	mov	r2, #1	; 0x1
c0000450:	e59f304c 	ldr	r3, [pc, #4c]	; c00004a4 <timer_init+0x6c>
c0000454:	e5831000 	str	r1, [r3]
c0000458:	e5831004 	str	r1, [r3, #4]
c000045c:	e5830008 	str	r0, [r3, #8]
c0000460:	e283300c 	add	r3, r3, #12	; 0xc
c0000464:	e2522001 	subs	r2, r2, #1	; 0x1
c0000468:	5afffff9 	bpl	c0000454 <timer_init+0x1c>
c000046c:	e59f3034 	ldr	r3, [pc, #34]	; c00004a8 <timer_init+0x70>
c0000470:	e3a01000 	mov	r1, #0	; 0x0
c0000474:	e5932000 	ldr	r2, [r3]
c0000478:	e59f302c 	ldr	r3, [pc, #2c]	; c00004ac <timer_init+0x74>
c000047c:	e2822a09 	add	r2, r2, #36864	; 0x9000
c0000480:	e5831000 	str	r1, [r3]
c0000484:	e3a03209 	mov	r3, #-1879048192	; 0x90000000
c0000488:	e2811001 	add	r1, r1, #1	; 0x1
c000048c:	e5832000 	str	r2, [r3]
c0000490:	e59f2018 	ldr	r2, [pc, #18]	; c00004b0 <timer_init+0x78>
c0000494:	e2833014 	add	r3, r3, #20	; 0x14
c0000498:	e5831000 	str	r1, [r3]
c000049c:	e5821000 	str	r1, [r2]
c00004a0:	e91ba800 	ldmdb	fp, {fp, sp, pc}
c00004a4:	c0009860 	andgt	r9, r0, r0, ror #16
c00004a8:	90000010 	andls	r0, r0, r0, lsl r0
c00004ac:	c0009878 	andgt	r9, r0, r8, ror r8
c00004b0:	9000001c 	andls	r0, r0, ip, lsl r0

c00004b4 <timer_poll>:
c00004b4:	e1a0c00d 	mov	ip, sp
c00004b8:	e92dd830 	stmdb	sp!, {r4, r5, fp, ip, lr, pc}
c00004bc:	e24cb004 	sub	fp, ip, #4	; 0x4
c00004c0:	e59f2048 	ldr	r2, [pc, #48]	; c0000510 <timer_poll+0x5c>
c00004c4:	e1a04000 	mov	r4, r0
c00004c8:	e5923000 	ldr	r3, [r2]
c00004cc:	e3a05209 	mov	r5, #-1879048192	; 0x90000000
c00004d0:	e3130001 	tst	r3, #1	; 0x1
c00004d4:	0a000009 	beq	c0000500 <timer_poll+0x4c>
c00004d8:	e3a03001 	mov	r3, #1	; 0x1
c00004dc:	e5823000 	str	r3, [r2]
c00004e0:	ebffffb1 	bl	c00003ac <time_interrupt>
c00004e4:	e5953000 	ldr	r3, [r5]
c00004e8:	e59f2024 	ldr	r2, [pc, #24]	; c0000514 <timer_poll+0x60>
c00004ec:	e2833a09 	add	r3, r3, #36864	; 0x9000
c00004f0:	e5853000 	str	r3, [r5]
c00004f4:	e0843084 	add	r3, r4, r4, lsl #1
c00004f8:	e7920103 	ldr	r0, [r2, r3, lsl #2]
c00004fc:	e91ba830 	ldmdb	fp, {r4, r5, fp, sp, pc}
c0000500:	e59f200c 	ldr	r2, [pc, #c]	; c0000514 <timer_poll+0x60>
c0000504:	e0843084 	add	r3, r4, r4, lsl #1
c0000508:	e7920103 	ldr	r0, [r2, r3, lsl #2]
c000050c:	e91ba830 	ldmdb	fp, {r4, r5, fp, sp, pc}
c0000510:	90000014 	andls	r0, r0, r4, lsl r0
c0000514:	c0009864 	andgt	r9, r0, r4, ror #16

c0000518 <wait_cs>:
c0000518:	e1a0c00d 	mov	ip, sp
c000051c:	e92dd830 	stmdb	sp!, {r4, r5, fp, ip, lr, pc}
c0000520:	e24cb004 	sub	fp, ip, #4	; 0x4
c0000524:	e59f2028 	ldr	r2, [pc, #28]	; c0000554 <wait_cs+0x3c>
c0000528:	e5923000 	ldr	r3, [r2]
c000052c:	e1a05002 	mov	r5, r2
c0000530:	e0834000 	add	r4, r3, r0
c0000534:	e1530004 	cmp	r3, r4
c0000538:	2a000004 	bcs	c0000550 <wait_cs+0x38>
c000053c:	e3a00000 	mov	r0, #0	; 0x0
c0000540:	ebffffdb 	bl	c00004b4 <timer_poll>
c0000544:	e5953000 	ldr	r3, [r5]
c0000548:	e1530004 	cmp	r3, r4
c000054c:	3afffffa 	bcc	c000053c <wait_cs+0x24>
c0000550:	e91ba830 	ldmdb	fp, {r4, r5, fp, sp, pc}
c0000554:	c0009878 	andgt	r9, r0, r8, ror r8

c0000558 <CurrentTime>:
c0000558:	e1a0c00d 	mov	ip, sp
c000055c:	e92dd800 	stmdb	sp!, {fp, ip, lr, pc}
c0000560:	e24cb004 	sub	fp, ip, #4	; 0x4
c0000564:	e59f3004 	ldr	r3, [pc, #4]	; c0000570 <CurrentTime+0x18>
c0000568:	e5930000 	ldr	r0, [r3]
c000056c:	e91ba800 	ldmdb	fp, {fp, sp, pc}
c0000570:	90000010 	andls	r0, r0, r0, lsl r0

c0000574 <printf>:
c0000574:	e1a0c00d 	mov	ip, sp
c0000578:	e92d000f 	stmdb	sp!, {r0, r1, r2, r3}
c000057c:	e92dd830 	stmdb	sp!, {r4, r5, fp, ip, lr, pc}
c0000580:	e24cb014 	sub	fp, ip, #20	; 0x14
c0000584:	e24ddb01 	sub	sp, sp, #1024	; 0x400
c0000588:	e24b5e41 	sub	r5, fp, #1040	; 0x410
c000058c:	e2455004 	sub	r5, r5, #4	; 0x4
c0000590:	e1a00005 	mov	r0, r5
c0000594:	e59b1004 	ldr	r1, [fp, #4]
c0000598:	e28b2008 	add	r2, fp, #8	; 0x8
c000059c:	eb00024a 	bl	c0000ecc <vsprintf>
c00005a0:	e59f3024 	ldr	r3, [pc, #24]	; c00005cc <printf+0x58>
c00005a4:	e5933000 	ldr	r3, [r3]
c00005a8:	e1a04000 	mov	r4, r0
c00005ac:	e3530000 	cmp	r3, #0	; 0x0
c00005b0:	0a000003 	beq	c00005c4 <printf+0x50>
c00005b4:	e1a00005 	mov	r0, r5
c00005b8:	e1a01004 	mov	r1, r4
c00005bc:	e1a0e00f 	mov	lr, pc
c00005c0:	e1a0f003 	mov	pc, r3
c00005c4:	e1a00004 	mov	r0, r4
c00005c8:	ea000000 	b	c00005d0 <printf+0x5c>
c00005cc:	c0009738 	andgt	r9, r0, r8, lsr r7
c00005d0:	e91ba830 	ldmdb	fp, {r4, r5, fp, sp, pc}

c00005d4 <getc>:
c00005d4:	e1a0c00d 	mov	ip, sp
c00005d8:	e92dd800 	stmdb	sp!, {fp, ip, lr, pc}
c00005dc:	e24cb004 	sub	fp, ip, #4	; 0x4
c00005e0:	e24dd004 	sub	sp, sp, #4	; 0x4
c00005e4:	e3a00000 	mov	r0, #0	; 0x0
c00005e8:	ebffff4f 	bl	c000032c <clear_timer>
c00005ec:	e24b0010 	sub	r0, fp, #16	; 0x10
c00005f0:	e59f301c 	ldr	r3, [pc, #1c]	; c0000614 <getc+0x40>
c00005f4:	e3a01001 	mov	r1, #1	; 0x1
c00005f8:	e1a0e00f 	mov	lr, pc
c00005fc:	e593f004 	ldr	pc, [r3, #4]
c0000600:	e55b2010 	ldrb	r2, [fp, -#16]
c0000604:	e3500001 	cmp	r0, #1	; 0x1
c0000608:	01a00002 	moveq	r0, r2
c000060c:	13e00000 	mvnne	r0, #0	; 0x0
c0000610:	ea000000 	b	c0000618 <getc+0x44>
c0000614:	c0009738 	andgt	r9, r0, r8, lsr r7
c0000618:	e91ba800 	ldmdb	fp, {fp, sp, pc}

c000061c <getc_timed>:
c000061c:	e1a0c00d 	mov	ip, sp
c0000620:	e92dd800 	stmdb	sp!, {fp, ip, lr, pc}
c0000624:	e24cb004 	sub	fp, ip, #4	; 0x4
c0000628:	e24dd004 	sub	sp, sp, #4	; 0x4
c000062c:	e1a01000 	mov	r1, r0
c0000630:	e3a00000 	mov	r0, #0	; 0x0
c0000634:	ebffff48 	bl	c000035c <set_timer>
c0000638:	e24b0010 	sub	r0, fp, #16	; 0x10
c000063c:	e59f301c 	ldr	r3, [pc, #1c]	; c0000660 <getc_timed+0x44>
c0000640:	e3a01001 	mov	r1, #1	; 0x1
c0000644:	e1a0e00f 	mov	lr, pc
c0000648:	e593f004 	ldr	pc, [r3, #4]
c000064c:	e55b2010 	ldrb	r2, [fp, -#16]
c0000650:	e3500001 	cmp	r0, #1	; 0x1
c0000654:	01a00002 	moveq	r0, r2
c0000658:	13e00000 	mvnne	r0, #0	; 0x0
c000065c:	ea000000 	b	c0000664 <getc_timed+0x48>
c0000660:	c0009738 	andgt	r9, r0, r8, lsr r7
c0000664:	e91ba800 	ldmdb	fp, {fp, sp, pc}

c0000668 <malloc_init>:
c0000668:	e1a0c00d 	mov	ip, sp
c000066c:	e92dd800 	stmdb	sp!, {fp, ip, lr, pc}
c0000670:	e24cb004 	sub	fp, ip, #4	; 0x4
c0000674:	e59f2018 	ldr	r2, [pc, #18]	; c0000694 <malloc_init+0x2c>
c0000678:	e59f1018 	ldr	r1, [pc, #18]	; c0000698 <malloc_init+0x30>
c000067c:	e3a03000 	mov	r3, #0	; 0x0
c0000680:	e5821000 	str	r1, [r2]
c0000684:	e3a02601 	mov	r2, #1048576	; 0x100000
c0000688:	e5813004 	str	r3, [r1, #4]
c000068c:	e5812000 	str	r2, [r1]
c0000690:	e91ba800 	ldmdb	fp, {fp, sp, pc}
c0000694:	c0009850 	andgt	r9, r0, r0, asr r8
c0000698:	81efffff 	strhid	pc, [pc, #ff]	; c000079f <malloc+0x103>

c000069c <malloc>:
c000069c:	e1a0c00d 	mov	ip, sp
c00006a0:	e92dddf0 	stmdb	sp!, {r4, r5, r6, r7, r8, sl, fp, ip, lr, pc}
c00006a4:	e24cb004 	sub	fp, ip, #4	; 0x4
c00006a8:	e1a05000 	mov	r5, r0
c00006ac:	e3a07000 	mov	r7, #0	; 0x0
c00006b0:	e59f00fc 	ldr	r0, [pc, #fc]	; c00007b4 <malloc+0x118>
c00006b4:	e1a01005 	mov	r1, r5
c00006b8:	ebffffad 	bl	c0000574 <printf>
c00006bc:	e2853013 	add	r3, r5, #19	; 0x13
c00006c0:	e3c3500f 	bic	r5, r3, #15	; 0xf
c00006c4:	e59f00ec 	ldr	r0, [pc, #ec]	; c00007b8 <malloc+0x11c>
c00006c8:	e1a01005 	mov	r1, r5
c00006cc:	ebffffa8 	bl	c0000574 <printf>
c00006d0:	e10fa000 	mrs	sl, CPSR
c00006d4:	e10f3000 	mrs	r3, CPSR
c00006d8:	e3c33080 	bic	r3, r3, #128	; 0x80
c00006dc:	e129f003 	msr	CPSR_fc, r3
c00006e0:	e59f60d4 	ldr	r6, [pc, #d4]	; c00007bc <malloc+0x120>
c00006e4:	e5963000 	ldr	r3, [r6]
c00006e8:	e1530007 	cmp	r3, r7
c00006ec:	0a000026 	beq	c000078c <malloc+0xf0>
c00006f0:	e2858008 	add	r8, r5, #8	; 0x8
c00006f4:	e5964000 	ldr	r4, [r6]
c00006f8:	e59f00c0 	ldr	r0, [pc, #c0]	; c00007c0 <malloc+0x124>
c00006fc:	e5942000 	ldr	r2, [r4]
c0000700:	e1a01004 	mov	r1, r4
c0000704:	ebffff9a 	bl	c0000574 <printf>
c0000708:	e5943000 	ldr	r3, [r4]
c000070c:	e1530005 	cmp	r3, r5
c0000710:	aa000002 	bge	c0000720 <malloc+0x84>
c0000714:	e59f00a8 	ldr	r0, [pc, #a8]	; c00007c4 <malloc+0x128>
c0000718:	ebffff95 	bl	c0000574 <printf>
c000071c:	ea000015 	b	c0000778 <malloc+0xdc>
c0000720:	e1a07004 	mov	r7, r4
c0000724:	e4973004 	ldr	r3, [r7], #4
c0000728:	e1530008 	cmp	r3, r8
c000072c:	3a00000b 	bcc	c0000760 <malloc+0xc4>
c0000730:	e5942004 	ldr	r2, [r4, #4]
c0000734:	e0870005 	add	r0, r7, r5
c0000738:	e5802004 	str	r2, [r0, #4]
c000073c:	e5943000 	ldr	r3, [r4]
c0000740:	e1a01000 	mov	r1, r0
c0000744:	e0653003 	rsb	r3, r5, r3
c0000748:	e7873005 	str	r3, [r7, r5]
c000074c:	e5860000 	str	r0, [r6]
c0000750:	e7972005 	ldr	r2, [r7, r5]
c0000754:	e59f006c 	ldr	r0, [pc, #6c]	; c00007c8 <malloc+0x12c>
c0000758:	ebffff85 	bl	c0000574 <printf>
c000075c:	ea000003 	b	c0000770 <malloc+0xd4>
c0000760:	e59f0064 	ldr	r0, [pc, #64]	; c00007cc <malloc+0x130>
c0000764:	ebffff82 	bl	c0000574 <printf>
c0000768:	e5943004 	ldr	r3, [r4, #4]
c000076c:	e5863000 	str	r3, [r6]
c0000770:	e5845000 	str	r5, [r4]
c0000774:	ea000004 	b	c000078c <malloc+0xf0>
c0000778:	e5963000 	ldr	r3, [r6]
c000077c:	e5b32004 	ldr	r2, [r3, #4]!
c0000780:	e1a06003 	mov	r6, r3
c0000784:	e3520000 	cmp	r2, #0	; 0x0
c0000788:	1affffd9 	bne	c00006f4 <malloc+0x58>
c000078c:	e59f003c 	ldr	r0, [pc, #3c]	; c00007d0 <malloc+0x134>
c0000790:	e1a01007 	mov	r1, r7
c0000794:	ebffff76 	bl	c0000574 <printf>
c0000798:	e10f3000 	mrs	r3, CPSR
c000079c:	e3c33080 	bic	r3, r3, #128	; 0x80
c00007a0:	e20aa080 	and	sl, sl, #128	; 0x80
c00007a4:	e183300a 	orr	r3, r3, sl
c00007a8:	e129f003 	msr	CPSR_fc, r3
c00007ac:	e1a00007 	mov	r0, r7
c00007b0:	e91badf0 	ldmdb	fp, {r4, r5, r6, r7, r8, sl, fp, sp, pc}
c00007b4:	c00015b8 	strgth	r1, [r0], -r8
c00007b8:	c00015c4 	andgt	r1, r0, r4, asr #11
c00007bc:	c0009850 	andgt	r9, r0, r0, asr r8
c00007c0:	c00015dc 	ldrgtd	r1, [r0], -ip
c00007c4:	c0001600 	andgt	r1, r0, r0, lsl #12
c00007c8:	c000160c 	andgt	r1, r0, ip, lsl #12
c00007cc:	c0001638 	andgt	r1, r0, r8, lsr r6
c00007d0:	c0001640 	andgt	r1, r0, r0, asr #12

c00007d4 <free>:
c00007d4:	e1a0c00d 	mov	ip, sp
c00007d8:	e92ddff0 	stmdb	sp!, {r4, r5, r6, r7, r8, r9, sl, fp, ip, lr, pc}
c00007dc:	e24cb004 	sub	fp, ip, #4	; 0x4
c00007e0:	e2507000 	subs	r7, r0, #0	; 0x0
c00007e4:	0a00004b 	beq	c0000918 <free+0x144>
c00007e8:	e2476004 	sub	r6, r7, #4	; 0x4
c00007ec:	e1a01007 	mov	r1, r7
c00007f0:	e5173004 	ldr	r3, [r7, -#4]
c00007f4:	e59f0120 	ldr	r0, [pc, #120]	; c000091c <free+0x148>
c00007f8:	e1a02006 	mov	r2, r6
c00007fc:	ebffff5c 	bl	c0000574 <printf>
c0000800:	e10fa000 	mrs	sl, CPSR
c0000804:	e10f3000 	mrs	r3, CPSR
c0000808:	e3c33080 	bic	r3, r3, #128	; 0x80
c000080c:	e129f003 	msr	CPSR_fc, r3
c0000810:	e59f8108 	ldr	r8, [pc, #108]	; c0000920 <free+0x14c>
c0000814:	e5983000 	ldr	r3, [r8]
c0000818:	e1a09008 	mov	r9, r8
c000081c:	e3530000 	cmp	r3, #0	; 0x0
c0000820:	0a000023 	beq	c00008b4 <free+0xe0>
c0000824:	e5984000 	ldr	r4, [r8]
c0000828:	e5945000 	ldr	r5, [r4]
c000082c:	e0843005 	add	r3, r4, r5
c0000830:	e1530006 	cmp	r3, r6
c0000834:	1a000009 	bne	c0000860 <free+0x8c>
c0000838:	e1a01004 	mov	r1, r4
c000083c:	e5942000 	ldr	r2, [r4]
c0000840:	e59f00dc 	ldr	r0, [pc, #dc]	; c0000924 <free+0x150>
c0000844:	e1a06004 	mov	r6, r4
c0000848:	ebffff49 	bl	c0000574 <printf>
c000084c:	e5943000 	ldr	r3, [r4]
c0000850:	e7942005 	ldr	r2, [r4, r5]
c0000854:	e3a07000 	mov	r7, #0	; 0x0
c0000858:	e0833002 	add	r3, r3, r2
c000085c:	e5843000 	str	r3, [r4]
c0000860:	e5965000 	ldr	r5, [r6]
c0000864:	e0863005 	add	r3, r6, r5
c0000868:	e1530004 	cmp	r3, r4
c000086c:	1a00000b 	bne	c00008a0 <free+0xcc>
c0000870:	e7962005 	ldr	r2, [r6, r5]
c0000874:	e59f00ac 	ldr	r0, [pc, #ac]	; c0000928 <free+0x154>
c0000878:	e1a01004 	mov	r1, r4
c000087c:	ebffff3c 	bl	c0000574 <printf>
c0000880:	e5943004 	ldr	r3, [r4, #4]
c0000884:	e5863004 	str	r3, [r6, #4]
c0000888:	e5962000 	ldr	r2, [r6]
c000088c:	e7963005 	ldr	r3, [r6, r5]
c0000890:	e3a07000 	mov	r7, #0	; 0x0
c0000894:	e0822003 	add	r2, r2, r3
c0000898:	e5862000 	str	r2, [r6]
c000089c:	e5886000 	str	r6, [r8]
c00008a0:	e5983000 	ldr	r3, [r8]
c00008a4:	e5b32004 	ldr	r2, [r3, #4]!
c00008a8:	e1a08003 	mov	r8, r3
c00008ac:	e3520000 	cmp	r2, #0	; 0x0
c00008b0:	1affffdb 	bne	c0000824 <free+0x50>
c00008b4:	e3570000 	cmp	r7, #0	; 0x0
c00008b8:	0a000011 	beq	c0000904 <free+0x130>
c00008bc:	e1a08009 	mov	r8, r9
c00008c0:	e5983000 	ldr	r3, [r8]
c00008c4:	e3530000 	cmp	r3, #0	; 0x0
c00008c8:	0a00000a 	beq	c00008f8 <free+0x124>
c00008cc:	e5983000 	ldr	r3, [r8]
c00008d0:	e1530006 	cmp	r3, r6
c00008d4:	aa000007 	bge	c00008f8 <free+0x124>
c00008d8:	e5982000 	ldr	r2, [r8]
c00008dc:	e1a08002 	mov	r8, r2
c00008e0:	e5b83004 	ldr	r3, [r8, #4]!
c00008e4:	e3530000 	cmp	r3, #0	; 0x0
c00008e8:	0a000002 	beq	c00008f8 <free+0x124>
c00008ec:	e5923004 	ldr	r3, [r2, #4]
c00008f0:	e1530006 	cmp	r3, r6
c00008f4:	bafffff7 	blt	c00008d8 <free+0x104>
c00008f8:	e3a03000 	mov	r3, #0	; 0x0
c00008fc:	e5863004 	str	r3, [r6, #4]
c0000900:	e5886000 	str	r6, [r8]
c0000904:	e10f3000 	mrs	r3, CPSR
c0000908:	e3c33080 	bic	r3, r3, #128	; 0x80
c000090c:	e20aa080 	and	sl, sl, #128	; 0x80
c0000910:	e183300a 	orr	r3, r3, sl
c0000914:	e129f003 	msr	CPSR_fc, r3
c0000918:	e91baff0 	ldmdb	fp, {r4, r5, r6, r7, r8, r9, sl, fp, sp, pc}
c000091c:	c0001650 	andgt	r1, r0, r0, asr r6
c0000920:	c0009850 	andgt	r9, r0, r0, asr r8
c0000924:	c0001674 	andgt	r1, r0, r4, ror r6
c0000928:	c00016a4 	andgt	r1, r0, r4, lsr #13

c000092c <ser_init>:
c000092c:	e1a0c00d 	mov	ip, sp
c0000930:	e92dd800 	stmdb	sp!, {fp, ip, lr, pc}
c0000934:	e24cb004 	sub	fp, ip, #4	; 0x4
c0000938:	e59fe05c 	ldr	lr, [pc, #5c]	; c000099c <ser_init+0x70>
c000093c:	e59fc05c 	ldr	ip, [pc, #5c]	; c00009a0 <ser_init+0x74>
c0000940:	e59f205c 	ldr	r2, [pc, #5c]	; c00009a4 <ser_init+0x78>
c0000944:	e59f105c 	ldr	r1, [pc, #5c]	; c00009a8 <ser_init+0x7c>
c0000948:	e3a03001 	mov	r3, #1	; 0x1
c000094c:	e5823000 	str	r3, [r2]
c0000950:	e2433001 	sub	r3, r3, #1	; 0x1
c0000954:	e5813000 	str	r3, [r1]
c0000958:	e59c3000 	ldr	r3, [ip]
c000095c:	e2130001 	ands	r0, r3, #1	; 0x1
c0000960:	1afffffc 	bne	c0000958 <ser_init+0x2c>
c0000964:	e3a020ff 	mov	r2, #255	; 0xff
c0000968:	e59f303c 	ldr	r3, [pc, #3c]	; c00009ac <ser_init+0x80>
c000096c:	e3a01008 	mov	r1, #8	; 0x8
c0000970:	e58e0000 	str	r0, [lr]
c0000974:	e403201c 	str	r2, [r3], -#28
c0000978:	e5831000 	str	r1, [r3]
c000097c:	e2411007 	sub	r1, r1, #7	; 0x7
c0000980:	e59f2028 	ldr	r2, [pc, #28]	; c00009b0 <ser_init+0x84>
c0000984:	e2833008 	add	r3, r3, #8	; 0x8
c0000988:	e5820000 	str	r0, [r2]
c000098c:	e3a02003 	mov	r2, #3	; 0x3
c0000990:	e5831000 	str	r1, [r3]
c0000994:	e58e2000 	str	r2, [lr]
c0000998:	e91ba800 	ldmdb	fp, {fp, sp, pc}
c000099c:	8001000c 	andhi	r0, r1, ip
c00009a0:	80010020 	andhi	r0, r1, r0, lsr #32
c00009a4:	80020060 	andhi	r0, r2, r0, rrx
c00009a8:	80020064 	andhi	r0, r2, r4, rrx
c00009ac:	8001001c 	andhi	r0, r1, ip, lsl r0
c00009b0:	80010004 	andhi	r0, r1, r4

c00009b4 <ser_read>:
c00009b4:	e1a0c00d 	mov	ip, sp
c00009b8:	e92dd9f0 	stmdb	sp!, {r4, r5, r6, r7, r8, fp, ip, lr, pc}
c00009bc:	e24cb004 	sub	fp, ip, #4	; 0x4
c00009c0:	e1a08000 	mov	r8, r0
c00009c4:	e3a06000 	mov	r6, #0	; 0x0
c00009c8:	e1a07001 	mov	r7, r1
c00009cc:	e1560007 	cmp	r6, r7
c00009d0:	aa000013 	bge	c0000a24 <ser_read+0x70>
c00009d4:	e59f3050 	ldr	r3, [pc, #50]	; c0000a2c <ser_read+0x78>
c00009d8:	e5934000 	ldr	r4, [r3]
c00009dc:	e3140002 	tst	r4, #2	; 0x2
c00009e0:	1a000009 	bne	c0000a0c <ser_read+0x58>
c00009e4:	e1a05003 	mov	r5, r3
c00009e8:	e3a00000 	mov	r0, #0	; 0x0
c00009ec:	e5954000 	ldr	r4, [r5]
c00009f0:	ebfffeaf 	bl	c00004b4 <timer_poll>
c00009f4:	e3500000 	cmp	r0, #0	; 0x0
c00009f8:	0a000001 	beq	c0000a04 <ser_read+0x50>
c00009fc:	e3e00000 	mvn	r0, #0	; 0x0
c0000a00:	e91ba9f0 	ldmdb	fp, {r4, r5, r6, r7, r8, fp, sp, pc}
c0000a04:	e3140002 	tst	r4, #2	; 0x2
c0000a08:	0afffff6 	beq	c00009e8 <ser_read+0x34>
c0000a0c:	e59f301c 	ldr	r3, [pc, #1c]	; c0000a30 <ser_read+0x7c>
c0000a10:	e2866001 	add	r6, r6, #1	; 0x1
c0000a14:	e5932000 	ldr	r2, [r3]
c0000a18:	e1560007 	cmp	r6, r7
c0000a1c:	e4c82001 	strb	r2, [r8], #1
c0000a20:	baffffeb 	blt	c00009d4 <ser_read+0x20>
c0000a24:	e1a00006 	mov	r0, r6
c0000a28:	e91ba9f0 	ldmdb	fp, {r4, r5, r6, r7, r8, fp, sp, pc}
c0000a2c:	80010020 	andhi	r0, r1, r0, lsr #32
c0000a30:	80010014 	andhi	r0, r1, r4, lsl r0

c0000a34 <ser_write>:
c0000a34:	e1a0c00d 	mov	ip, sp
c0000a38:	e92dd800 	stmdb	sp!, {fp, ip, lr, pc}
c0000a3c:	e24cb004 	sub	fp, ip, #4	; 0x4
c0000a40:	e3510000 	cmp	r1, #0	; 0x0
c0000a44:	da00000a 	ble	c0000a74 <ser_write+0x40>
c0000a48:	e59fc028 	ldr	ip, [pc, #28]	; c0000a78 <ser_write+0x44>
c0000a4c:	e59fe028 	ldr	lr, [pc, #28]	; c0000a7c <ser_write+0x48>
c0000a50:	e4d03001 	ldrb	r3, [r0], #1
c0000a54:	e2411001 	sub	r1, r1, #1	; 0x1
c0000a58:	e20320ff 	and	r2, r3, #255	; 0xff
c0000a5c:	e59c3000 	ldr	r3, [ip]
c0000a60:	e3130004 	tst	r3, #4	; 0x4
c0000a64:	0afffffc 	beq	c0000a5c <ser_write+0x28>
c0000a68:	e3510000 	cmp	r1, #0	; 0x0
c0000a6c:	e58e2000 	str	r2, [lr]
c0000a70:	cafffff6 	bgt	c0000a50 <ser_write+0x1c>
c0000a74:	e91ba800 	ldmdb	fp, {fp, sp, pc}
c0000a78:	80010020 	andhi	r0, r1, r0, lsr #32
c0000a7c:	80010014 	andhi	r0, r1, r4, lsl r0

c0000a80 <ser_stat>:
c0000a80:	e1a0c00d 	mov	ip, sp
c0000a84:	e92dd800 	stmdb	sp!, {fp, ip, lr, pc}
c0000a88:	e24cb004 	sub	fp, ip, #4	; 0x4
c0000a8c:	e59f300c 	ldr	r3, [pc, #c]	; c0000aa0 <ser_stat+0x20>
c0000a90:	e5930000 	ldr	r0, [r3]
c0000a94:	e1a000a0 	mov	r0, r0, lsr #1
c0000a98:	e2000001 	and	r0, r0, #1	; 0x1
c0000a9c:	e91ba800 	ldmdb	fp, {fp, sp, pc}
c0000aa0:	80010020 	andhi	r0, r1, r0, lsr #32

c0000aa4 <simple_strtoul>:
c0000aa4:	e1a0c00d 	mov	ip, sp
c0000aa8:	e92dd8f0 	stmdb	sp!, {r4, r5, r6, r7, fp, ip, lr, pc}
c0000aac:	e24cb004 	sub	fp, ip, #4	; 0x4
c0000ab0:	e3a04000 	mov	r4, #0	; 0x0
c0000ab4:	e252c000 	subs	ip, r2, #0	; 0x0
c0000ab8:	e1a05001 	mov	r5, r1
c0000abc:	e59f70f0 	ldr	r7, [pc, #f0]	; c0000bb4 <simple_strtoul+0x110>
c0000ac0:	1a00000e 	bne	c0000b00 <simple_strtoul+0x5c>
c0000ac4:	e5d03000 	ldrb	r3, [r0]
c0000ac8:	e3a0c00a 	mov	ip, #10	; 0xa
c0000acc:	e3530030 	cmp	r3, #48	; 0x30
c0000ad0:	1a00000a 	bne	c0000b00 <simple_strtoul+0x5c>
c0000ad4:	e5f03001 	ldrb	r3, [r0, #1]!
c0000ad8:	e24cc002 	sub	ip, ip, #2	; 0x2
c0000adc:	e3530078 	cmp	r3, #120	; 0x78
c0000ae0:	1a000006 	bne	c0000b00 <simple_strtoul+0x5c>
c0000ae4:	e5d03001 	ldrb	r3, [r0, #1]
c0000ae8:	e20330ff 	and	r3, r3, #255	; 0xff
c0000aec:	e7d72003 	ldrb	r2, [r7, r3]
c0000af0:	e2022044 	and	r2, r2, #68	; 0x44
c0000af4:	e1520004 	cmp	r2, r4
c0000af8:	12800001 	addne	r0, r0, #1	; 0x1
c0000afc:	128cc008 	addne	ip, ip, #8	; 0x8
c0000b00:	e5d02000 	ldrb	r2, [r0]
c0000b04:	e1a0e007 	mov	lr, r7
c0000b08:	e20220ff 	and	r2, r2, #255	; 0xff
c0000b0c:	e7de3002 	ldrb	r3, [lr, r2]
c0000b10:	e2033044 	and	r3, r3, #68	; 0x44
c0000b14:	e3530000 	cmp	r3, #0	; 0x0
c0000b18:	0a000021 	beq	c0000ba4 <simple_strtoul+0x100>
c0000b1c:	e1a0600e 	mov	r6, lr
c0000b20:	e5d03000 	ldrb	r3, [r0]
c0000b24:	e20330ff 	and	r3, r3, #255	; 0xff
c0000b28:	e7d62003 	ldrb	r2, [r6, r3]
c0000b2c:	e3120004 	tst	r2, #4	; 0x4
c0000b30:	0a000002 	beq	c0000b40 <simple_strtoul+0x9c>
c0000b34:	e5d03000 	ldrb	r3, [r0]
c0000b38:	e2431030 	sub	r1, r3, #48	; 0x30
c0000b3c:	ea00000e 	b	c0000b7c <simple_strtoul+0xd8>
c0000b40:	e5d03000 	ldrb	r3, [r0]
c0000b44:	e20330ff 	and	r3, r3, #255	; 0xff
c0000b48:	e7de2003 	ldrb	r2, [lr, r3]
c0000b4c:	e3120002 	tst	r2, #2	; 0x2
c0000b50:	0a000007 	beq	c0000b74 <simple_strtoul+0xd0>
c0000b54:	e5d01000 	ldrb	r1, [r0]
c0000b58:	e20110ff 	and	r1, r1, #255	; 0xff
c0000b5c:	e2413020 	sub	r3, r1, #32	; 0x20
c0000b60:	e7de2001 	ldrb	r2, [lr, r1]
c0000b64:	e20330ff 	and	r3, r3, #255	; 0xff
c0000b68:	e3120002 	tst	r2, #2	; 0x2
c0000b6c:	01a03001 	moveq	r3, r1
c0000b70:	ea000000 	b	c0000b78 <simple_strtoul+0xd4>
c0000b74:	e5d03000 	ldrb	r3, [r0]
c0000b78:	e2431037 	sub	r1, r3, #55	; 0x37
c0000b7c:	e151000c 	cmp	r1, ip
c0000b80:	2a000007 	bcs	c0000ba4 <simple_strtoul+0x100>
c0000b84:	e5f03001 	ldrb	r3, [r0, #1]!
c0000b88:	e1a0e007 	mov	lr, r7
c0000b8c:	e20330ff 	and	r3, r3, #255	; 0xff
c0000b90:	e7de2003 	ldrb	r2, [lr, r3]
c0000b94:	e024149c 	mla	r4, ip, r4, r1
c0000b98:	e2022044 	and	r2, r2, #68	; 0x44
c0000b9c:	e3520000 	cmp	r2, #0	; 0x0
c0000ba0:	1affffde 	bne	c0000b20 <simple_strtoul+0x7c>
c0000ba4:	e3550000 	cmp	r5, #0	; 0x0
c0000ba8:	15850000 	strne	r0, [r5]
c0000bac:	e1a00004 	mov	r0, r4
c0000bb0:	e91ba8f0 	ldmdb	fp, {r4, r5, r6, r7, fp, sp, pc}
c0000bb4:	c0009748 	andgt	r9, r0, r8, asr #14

c0000bb8 <skip_atoi>:
c0000bb8:	e1a0c00d 	mov	ip, sp
c0000bbc:	e92dd800 	stmdb	sp!, {fp, ip, lr, pc}
c0000bc0:	e24cb004 	sub	fp, ip, #4	; 0x4
c0000bc4:	e1a0c000 	mov	ip, r0
c0000bc8:	e59c3000 	ldr	r3, [ip]
c0000bcc:	e5d32000 	ldrb	r2, [r3]
c0000bd0:	e3a01000 	mov	r1, #0	; 0x0
c0000bd4:	e352002f 	cmp	r2, #47	; 0x2f
c0000bd8:	ea000008 	b	c0000c00 <skip_atoi+0x48>
c0000bdc:	e59c3000 	ldr	r3, [ip]
c0000be0:	e4d32001 	ldrb	r2, [r3], #1
c0000be4:	e0811101 	add	r1, r1, r1, lsl #2
c0000be8:	e58c3000 	str	r3, [ip]
c0000bec:	e59c3000 	ldr	r3, [ip]
c0000bf0:	e0822081 	add	r2, r2, r1, lsl #1
c0000bf4:	e5d30000 	ldrb	r0, [r3]
c0000bf8:	e2421030 	sub	r1, r2, #48	; 0x30
c0000bfc:	e350002f 	cmp	r0, #47	; 0x2f
c0000c00:	9a000003 	bls	c0000c14 <skip_atoi+0x5c>
c0000c04:	e59c3000 	ldr	r3, [ip]
c0000c08:	e5d32000 	ldrb	r2, [r3]
c0000c0c:	e3520039 	cmp	r2, #57	; 0x39
c0000c10:	9afffff1 	bls	c0000bdc <skip_atoi+0x24>
c0000c14:	e1a00001 	mov	r0, r1
c0000c18:	e91ba800 	ldmdb	fp, {fp, sp, pc}

c0000c1c <number>:
c0000c1c:	e1a0c00d 	mov	ip, sp
c0000c20:	e92ddff0 	stmdb	sp!, {r4, r5, r6, r7, r8, r9, sl, fp, ip, lr, pc}
c0000c24:	e24cb004 	sub	fp, ip, #4	; 0x4
c0000c28:	e24dd060 	sub	sp, sp, #96	; 0x60
c0000c2c:	e1a08000 	mov	r8, r0
c0000c30:	e1a06001 	mov	r6, r1
c0000c34:	e1a05003 	mov	r5, r3
c0000c38:	e1a0a002 	mov	sl, r2
c0000c3c:	e59b9004 	ldr	r9, [fp, #4]
c0000c40:	e59b1008 	ldr	r1, [fp, #8]
c0000c44:	e59f019c 	ldr	r0, [pc, #19c]	; c0000de8 <number+0x1cc>
c0000c48:	e59f319c 	ldr	r3, [pc, #19c]	; c0000dec <number+0x1d0>
c0000c4c:	e3110040 	tst	r1, #64	; 0x40
c0000c50:	11a00003 	movne	r0, r3
c0000c54:	e3110010 	tst	r1, #16	; 0x10
c0000c58:	e3c13001 	bic	r3, r1, #1	; 0x1
c0000c5c:	11a01003 	movne	r1, r3
c0000c60:	e24a3002 	sub	r3, sl, #2	; 0x2
c0000c64:	e3530022 	cmp	r3, #34	; 0x22
c0000c68:	e50b0078 	str	r0, [fp, -#120]
c0000c6c:	83a00000 	movhi	r0, #0	; 0x0
c0000c70:	8a000094 	bhi	c0000ec8 <number+0x2ac>
c0000c74:	e3110001 	tst	r1, #1	; 0x1
c0000c78:	e3a02000 	mov	r2, #0	; 0x0
c0000c7c:	03a03020 	moveq	r3, #32	; 0x20
c0000c80:	13a03030 	movne	r3, #48	; 0x30
c0000c84:	e3110002 	tst	r1, #2	; 0x2
c0000c88:	e50b2074 	str	r2, [fp, -#116]
c0000c8c:	e50b3070 	str	r3, [fp, -#112]
c0000c90:	0a000011 	beq	c0000cdc <number+0xc0>
c0000c94:	e1560002 	cmp	r6, r2
c0000c98:	aa000004 	bge	c0000cb0 <number+0x94>
c0000c9c:	e3a0002d 	mov	r0, #45	; 0x2d
c0000ca0:	e2666000 	rsb	r6, r6, #0	; 0x0
c0000ca4:	e2455001 	sub	r5, r5, #1	; 0x1
c0000ca8:	e50b0074 	str	r0, [fp, -#116]
c0000cac:	ea00000a 	b	c0000cdc <number+0xc0>
c0000cb0:	e3110004 	tst	r1, #4	; 0x4
c0000cb4:	0a000003 	beq	c0000cc8 <number+0xac>
c0000cb8:	e3a0202b 	mov	r2, #43	; 0x2b
c0000cbc:	e2455001 	sub	r5, r5, #1	; 0x1
c0000cc0:	e50b2074 	str	r2, [fp, -#116]
c0000cc4:	ea000004 	b	c0000cdc <number+0xc0>
c0000cc8:	e3110008 	tst	r1, #8	; 0x8
c0000ccc:	0a000002 	beq	c0000cdc <number+0xc0>
c0000cd0:	e3a03020 	mov	r3, #32	; 0x20
c0000cd4:	e2455001 	sub	r5, r5, #1	; 0x1
c0000cd8:	e50b3074 	str	r3, [fp, -#116]
c0000cdc:	e2113020 	ands	r3, r1, #32	; 0x20
c0000ce0:	e50b3088 	str	r3, [fp, -#136]
c0000ce4:	0a000004 	beq	c0000cfc <number+0xe0>
c0000ce8:	e35a0010 	cmp	sl, #16	; 0x10
c0000cec:	02455002 	subeq	r5, r5, #2	; 0x2
c0000cf0:	0a000001 	beq	c0000cfc <number+0xe0>
c0000cf4:	e35a0008 	cmp	sl, #8	; 0x8
c0000cf8:	02455001 	subeq	r5, r5, #1	; 0x1
c0000cfc:	e3a07000 	mov	r7, #0	; 0x0
c0000d00:	e1560007 	cmp	r6, r7
c0000d04:	1a000007 	bne	c0000d28 <number+0x10c>
c0000d08:	e2877001 	add	r7, r7, #1	; 0x1
c0000d0c:	e2010010 	and	r0, r1, #16	; 0x10
c0000d10:	e2011011 	and	r1, r1, #17	; 0x11
c0000d14:	e3a03030 	mov	r3, #48	; 0x30
c0000d18:	e50b0080 	str	r0, [fp, -#128]
c0000d1c:	e50b1084 	str	r1, [fp, -#132]
c0000d20:	e54b306c 	strb	r3, [fp, -#108]
c0000d24:	ea000013 	b	c0000d78 <number+0x15c>
c0000d28:	e2012010 	and	r2, r1, #16	; 0x10
c0000d2c:	e24b306c 	sub	r3, fp, #108	; 0x6c
c0000d30:	e2011011 	and	r1, r1, #17	; 0x11
c0000d34:	e50b2080 	str	r2, [fp, -#128]
c0000d38:	e50b307c 	str	r3, [fp, -#124]
c0000d3c:	e50b1084 	str	r1, [fp, -#132]
c0000d40:	e1a00006 	mov	r0, r6
c0000d44:	e1a0100a 	mov	r1, sl
c0000d48:	eb0001d9 	bl	c00014b4 <__umodsi3>
c0000d4c:	e1a04000 	mov	r4, r0
c0000d50:	e1a00006 	mov	r0, r6
c0000d54:	e1a0100a 	mov	r1, sl
c0000d58:	eb0001af 	bl	c000141c <__udivsi3>
c0000d5c:	e2506000 	subs	r6, r0, #0	; 0x0
c0000d60:	e51b2078 	ldr	r2, [fp, -#120]
c0000d64:	e51b007c 	ldr	r0, [fp, -#124]
c0000d68:	e7d23004 	ldrb	r3, [r2, r4]
c0000d6c:	e7c03007 	strb	r3, [r0, r7]
c0000d70:	e2877001 	add	r7, r7, #1	; 0x1
c0000d74:	1afffff1 	bne	c0000d40 <number+0x124>
c0000d78:	e1570009 	cmp	r7, r9
c0000d7c:	a1a09007 	movge	r9, r7
c0000d80:	e0695005 	rsb	r5, r9, r5
c0000d84:	e51b2084 	ldr	r2, [fp, -#132]
c0000d88:	e2471001 	sub	r1, r7, #1	; 0x1
c0000d8c:	e3520000 	cmp	r2, #0	; 0x0
c0000d90:	1a000009 	bne	c0000dbc <number+0x1a0>
c0000d94:	e1a03005 	mov	r3, r5
c0000d98:	e2455001 	sub	r5, r5, #1	; 0x1
c0000d9c:	e3530000 	cmp	r3, #0	; 0x0
c0000da0:	da000005 	ble	c0000dbc <number+0x1a0>
c0000da4:	e3a02020 	mov	r2, #32	; 0x20
c0000da8:	e1a03005 	mov	r3, r5
c0000dac:	e2455001 	sub	r5, r5, #1	; 0x1
c0000db0:	e3530000 	cmp	r3, #0	; 0x0
c0000db4:	e4c82001 	strb	r2, [r8], #1
c0000db8:	cafffffa 	bgt	c0000da8 <number+0x18c>
c0000dbc:	e51b3074 	ldr	r3, [fp, -#116]
c0000dc0:	e3530000 	cmp	r3, #0	; 0x0
c0000dc4:	14c83001 	strneb	r3, [r8], #1
c0000dc8:	e51b0088 	ldr	r0, [fp, -#136]
c0000dcc:	e3500000 	cmp	r0, #0	; 0x0
c0000dd0:	0a00000d 	beq	c0000e0c <number+0x1f0>
c0000dd4:	e35a0008 	cmp	sl, #8	; 0x8
c0000dd8:	1a000004 	bne	c0000df0 <number+0x1d4>
c0000ddc:	e3a03030 	mov	r3, #48	; 0x30
c0000de0:	e4c83001 	strb	r3, [r8], #1
c0000de4:	ea000008 	b	c0000e0c <number+0x1f0>
c0000de8:	c00016d0 	ldrgtd	r1, [r0], -r0
c0000dec:	c00016f8 	strgtd	r1, [r0], -r8
c0000df0:	e35a0010 	cmp	sl, #16	; 0x10
c0000df4:	1a000004 	bne	c0000e0c <number+0x1f0>
c0000df8:	e3a03030 	mov	r3, #48	; 0x30
c0000dfc:	e4c83001 	strb	r3, [r8], #1
c0000e00:	e51b3078 	ldr	r3, [fp, -#120]
c0000e04:	e5d32021 	ldrb	r2, [r3, #33]
c0000e08:	e4c82001 	strb	r2, [r8], #1
c0000e0c:	e51b0080 	ldr	r0, [fp, -#128]
c0000e10:	e2492001 	sub	r2, r9, #1	; 0x1
c0000e14:	e3500000 	cmp	r0, #0	; 0x0
c0000e18:	1a000009 	bne	c0000e44 <number+0x228>
c0000e1c:	e1a03005 	mov	r3, r5
c0000e20:	e2455001 	sub	r5, r5, #1	; 0x1
c0000e24:	e3530000 	cmp	r3, #0	; 0x0
c0000e28:	da000005 	ble	c0000e44 <number+0x228>
c0000e2c:	e1a03005 	mov	r3, r5
c0000e30:	e3530000 	cmp	r3, #0	; 0x0
c0000e34:	e51b3070 	ldr	r3, [fp, -#112]
c0000e38:	e2455001 	sub	r5, r5, #1	; 0x1
c0000e3c:	e4c83001 	strb	r3, [r8], #1
c0000e40:	cafffff9 	bgt	c0000e2c <number+0x210>
c0000e44:	e1a03009 	mov	r3, r9
c0000e48:	e1a09002 	mov	r9, r2
c0000e4c:	e1570003 	cmp	r7, r3
c0000e50:	e2450001 	sub	r0, r5, #1	; 0x1
c0000e54:	aa000005 	bge	c0000e70 <number+0x254>
c0000e58:	e3a02030 	mov	r2, #48	; 0x30
c0000e5c:	e1a03009 	mov	r3, r9
c0000e60:	e2499001 	sub	r9, r9, #1	; 0x1
c0000e64:	e1570003 	cmp	r7, r3
c0000e68:	e4c82001 	strb	r2, [r8], #1
c0000e6c:	bafffffa 	blt	c0000e5c <number+0x240>
c0000e70:	e1a03007 	mov	r3, r7
c0000e74:	e1a07001 	mov	r7, r1
c0000e78:	e3530000 	cmp	r3, #0	; 0x0
c0000e7c:	da000006 	ble	c0000e9c <number+0x280>
c0000e80:	e24b106c 	sub	r1, fp, #108	; 0x6c
c0000e84:	e1a03007 	mov	r3, r7
c0000e88:	e7d12007 	ldrb	r2, [r1, r7]
c0000e8c:	e2477001 	sub	r7, r7, #1	; 0x1
c0000e90:	e3530000 	cmp	r3, #0	; 0x0
c0000e94:	e4c82001 	strb	r2, [r8], #1
c0000e98:	cafffff9 	bgt	c0000e84 <number+0x268>
c0000e9c:	e1a03005 	mov	r3, r5
c0000ea0:	e1a05000 	mov	r5, r0
c0000ea4:	e3530000 	cmp	r3, #0	; 0x0
c0000ea8:	da000005 	ble	c0000ec4 <number+0x2a8>
c0000eac:	e3a02020 	mov	r2, #32	; 0x20
c0000eb0:	e1a03005 	mov	r3, r5
c0000eb4:	e2455001 	sub	r5, r5, #1	; 0x1
c0000eb8:	e3530000 	cmp	r3, #0	; 0x0
c0000ebc:	e4c82001 	strb	r2, [r8], #1
c0000ec0:	cafffffa 	bgt	c0000eb0 <number+0x294>
c0000ec4:	e1a00008 	mov	r0, r8
c0000ec8:	e91baff0 	ldmdb	fp, {r4, r5, r6, r7, r8, r9, sl, fp, sp, pc}

c0000ecc <vsprintf>:
c0000ecc:	e1a0c00d 	mov	ip, sp
c0000ed0:	e92dddf0 	stmdb	sp!, {r4, r5, r6, r7, r8, sl, fp, ip, lr, pc}
c0000ed4:	e24cb004 	sub	fp, ip, #4	; 0x4
c0000ed8:	e24dd00c 	sub	sp, sp, #12	; 0xc
c0000edc:	e1a08002 	mov	r8, r2
c0000ee0:	e1a02001 	mov	r2, r1
c0000ee4:	e1a0a000 	mov	sl, r0
c0000ee8:	e50b1028 	str	r1, [fp, -#40]
c0000eec:	e5d23000 	ldrb	r3, [r2]
c0000ef0:	e1a0700a 	mov	r7, sl
c0000ef4:	e3530000 	cmp	r3, #0	; 0x0
c0000ef8:	0a000118 	beq	c0001360 <vsprintf+0x494>
c0000efc:	e5d23000 	ldrb	r3, [r2]
c0000f00:	e3530025 	cmp	r3, #37	; 0x25
c0000f04:	1a0000f3 	bne	c00012d8 <vsprintf+0x40c>
c0000f08:	e3a06000 	mov	r6, #0	; 0x0
c0000f0c:	e51b1028 	ldr	r1, [fp, -#40]
c0000f10:	e2812001 	add	r2, r1, #1	; 0x1
c0000f14:	e50b2028 	str	r2, [fp, -#40]
c0000f18:	e5d13001 	ldrb	r3, [r1, #1]
c0000f1c:	e2433020 	sub	r3, r3, #32	; 0x20
c0000f20:	e3530010 	cmp	r3, #16	; 0x10
c0000f24:	979ff103 	ldrls	pc, [pc, r3, lsl #2]
c0000f28:	ea00001a 	b	c0000f98 <vsprintf+0xcc>
c0000f2c:	c0000f80 	andgt	r0, r0, r0, lsl #31
c0000f30:	c0000f98 	mulgt	r0, r8, pc
c0000f34:	c0000f98 	mulgt	r0, r8, pc
c0000f38:	c0000f88 	andgt	r0, r0, r8, lsl #31
c0000f3c:	c0000f98 	mulgt	r0, r8, pc
c0000f40:	c0000f98 	mulgt	r0, r8, pc
c0000f44:	c0000f98 	mulgt	r0, r8, pc
c0000f48:	c0000f98 	mulgt	r0, r8, pc
c0000f4c:	c0000f98 	mulgt	r0, r8, pc
c0000f50:	c0000f98 	mulgt	r0, r8, pc
c0000f54:	c0000f98 	mulgt	r0, r8, pc
c0000f58:	c0000f78 	andgt	r0, r0, r8, ror pc
c0000f5c:	c0000f98 	mulgt	r0, r8, pc
c0000f60:	c0000f70 	andgt	r0, r0, r0, ror pc
c0000f64:	c0000f98 	mulgt	r0, r8, pc
c0000f68:	c0000f98 	mulgt	r0, r8, pc
c0000f6c:	c0000f90 	mulgt	r0, r0, pc
c0000f70:	e3866010 	orr	r6, r6, #16	; 0x10
c0000f74:	eaffffe4 	b	c0000f0c <vsprintf+0x40>
c0000f78:	e3866004 	orr	r6, r6, #4	; 0x4
c0000f7c:	eaffffe2 	b	c0000f0c <vsprintf+0x40>
c0000f80:	e3866008 	orr	r6, r6, #8	; 0x8
c0000f84:	eaffffe0 	b	c0000f0c <vsprintf+0x40>
c0000f88:	e3866020 	orr	r6, r6, #32	; 0x20
c0000f8c:	eaffffde 	b	c0000f0c <vsprintf+0x40>
c0000f90:	e3866001 	orr	r6, r6, #1	; 0x1
c0000f94:	eaffffdc 	b	c0000f0c <vsprintf+0x40>
c0000f98:	e51b2028 	ldr	r2, [fp, -#40]
c0000f9c:	e5d23000 	ldrb	r3, [r2]
c0000fa0:	e3e05000 	mvn	r5, #0	; 0x0
c0000fa4:	e353002f 	cmp	r3, #47	; 0x2f
c0000fa8:	9a000006 	bls	c0000fc8 <vsprintf+0xfc>
c0000fac:	e5d23000 	ldrb	r3, [r2]
c0000fb0:	e3530039 	cmp	r3, #57	; 0x39
c0000fb4:	8a000003 	bhi	c0000fc8 <vsprintf+0xfc>
c0000fb8:	e24b0028 	sub	r0, fp, #40	; 0x28
c0000fbc:	ebfffefd 	bl	c0000bb8 <skip_atoi>
c0000fc0:	e1a05000 	mov	r5, r0
c0000fc4:	ea000009 	b	c0000ff0 <vsprintf+0x124>
c0000fc8:	e51b2028 	ldr	r2, [fp, -#40]
c0000fcc:	e5d23000 	ldrb	r3, [r2]
c0000fd0:	e353002a 	cmp	r3, #42	; 0x2a
c0000fd4:	1a000005 	bne	c0000ff0 <vsprintf+0x124>
c0000fd8:	e2823001 	add	r3, r2, #1	; 0x1
c0000fdc:	e50b3028 	str	r3, [fp, -#40]
c0000fe0:	e4985004 	ldr	r5, [r8], #4
c0000fe4:	e3550000 	cmp	r5, #0	; 0x0
c0000fe8:	b2655000 	rsblt	r5, r5, #0	; 0x0
c0000fec:	b3866010 	orrlt	r6, r6, #16	; 0x10
c0000ff0:	e51b3028 	ldr	r3, [fp, -#40]
c0000ff4:	e3e0c000 	mvn	ip, #0	; 0x0
c0000ff8:	e5d32000 	ldrb	r2, [r3]
c0000ffc:	e1a01003 	mov	r1, r3
c0001000:	e352002e 	cmp	r2, #46	; 0x2e
c0001004:	1a000015 	bne	c0001060 <vsprintf+0x194>
c0001008:	e2813001 	add	r3, r1, #1	; 0x1
c000100c:	e50b3028 	str	r3, [fp, -#40]
c0001010:	e5d12001 	ldrb	r2, [r1, #1]
c0001014:	e352002f 	cmp	r2, #47	; 0x2f
c0001018:	9a000006 	bls	c0001038 <vsprintf+0x16c>
c000101c:	e5d13001 	ldrb	r3, [r1, #1]
c0001020:	e3530039 	cmp	r3, #57	; 0x39
c0001024:	8a000003 	bhi	c0001038 <vsprintf+0x16c>
c0001028:	e24b0028 	sub	r0, fp, #40	; 0x28
c000102c:	ebfffee1 	bl	c0000bb8 <skip_atoi>
c0001030:	e1a0c000 	mov	ip, r0
c0001034:	ea000006 	b	c0001054 <vsprintf+0x188>
c0001038:	e51b2028 	ldr	r2, [fp, -#40]
c000103c:	e5d23000 	ldrb	r3, [r2]
c0001040:	e353002a 	cmp	r3, #42	; 0x2a
c0001044:	1a000002 	bne	c0001054 <vsprintf+0x188>
c0001048:	e2823001 	add	r3, r2, #1	; 0x1
c000104c:	e50b3028 	str	r3, [fp, -#40]
c0001050:	e498c004 	ldr	ip, [r8], #4
c0001054:	e35c0000 	cmp	ip, #0	; 0x0
c0001058:	b3a0c000 	movlt	ip, #0	; 0x0
c000105c:	e51b1028 	ldr	r1, [fp, -#40]
c0001060:	e5d13000 	ldrb	r3, [r1]
c0001064:	e3e00000 	mvn	r0, #0	; 0x0
c0001068:	e3530068 	cmp	r3, #104	; 0x68
c000106c:	0a000005 	beq	c0001088 <vsprintf+0x1bc>
c0001070:	e5d13000 	ldrb	r3, [r1]
c0001074:	e353006c 	cmp	r3, #108	; 0x6c
c0001078:	0a000002 	beq	c0001088 <vsprintf+0x1bc>
c000107c:	e5d13000 	ldrb	r3, [r1]
c0001080:	e353004c 	cmp	r3, #76	; 0x4c
c0001084:	1a000003 	bne	c0001098 <vsprintf+0x1cc>
c0001088:	e51b2028 	ldr	r2, [fp, -#40]
c000108c:	e4d23001 	ldrb	r3, [r2], #1
c0001090:	e20300ff 	and	r0, r3, #255	; 0xff
c0001094:	e50b2028 	str	r2, [fp, -#40]
c0001098:	e51b2028 	ldr	r2, [fp, -#40]
c000109c:	e5d23000 	ldrb	r3, [r2]
c00010a0:	e3a0200a 	mov	r2, #10	; 0xa
c00010a4:	e2433058 	sub	r3, r3, #88	; 0x58
c00010a8:	e3530020 	cmp	r3, #32	; 0x20
c00010ac:	979ff103 	ldrls	pc, [pc, r3, lsl #2]
c00010b0:	ea00007f 	b	c00012b4 <vsprintf+0x3e8>
c00010b4:	c00012a0 	andgt	r1, r0, r0, lsr #5
c00010b8:	c00012b4 	strgth	r1, [r0], -r4
c00010bc:	c00012b4 	strgth	r1, [r0], -r4
c00010c0:	c00012b4 	strgth	r1, [r0], -r4
c00010c4:	c00012b4 	strgth	r1, [r0], -r4
c00010c8:	c00012b4 	strgth	r1, [r0], -r4
c00010cc:	c00012b4 	strgth	r1, [r0], -r4
c00010d0:	c00012b4 	strgth	r1, [r0], -r4
c00010d4:	c00012b4 	strgth	r1, [r0], -r4
c00010d8:	c00012b4 	strgth	r1, [r0], -r4
c00010dc:	c00012b4 	strgth	r1, [r0], -r4
c00010e0:	c0001138 	andgt	r1, r0, r8, lsr r1
c00010e4:	c00012ac 	andgt	r1, r0, ip, lsr #5
c00010e8:	c00012b4 	strgth	r1, [r0], -r4
c00010ec:	c00012b4 	strgth	r1, [r0], -r4
c00010f0:	c00012b4 	strgth	r1, [r0], -r4
c00010f4:	c00012b4 	strgth	r1, [r0], -r4
c00010f8:	c00012ac 	andgt	r1, r0, ip, lsr #5
c00010fc:	c00012b4 	strgth	r1, [r0], -r4
c0001100:	c00012b4 	strgth	r1, [r0], -r4
c0001104:	c00012b4 	strgth	r1, [r0], -r4
c0001108:	c00012b4 	strgth	r1, [r0], -r4
c000110c:	c0001284 	andgt	r1, r0, r4, lsl #5
c0001110:	c0001298 	mulgt	r0, r8, r2
c0001114:	c0001268 	andgt	r1, r0, r8, ror #4
c0001118:	c00012b4 	strgth	r1, [r0], -r4
c000111c:	c00012b4 	strgth	r1, [r0], -r4
c0001120:	c0001194 	mulgt	r0, r4, r1
c0001124:	c00012b4 	strgth	r1, [r0], -r4
c0001128:	c00012f0 	strgtd	r1, [r0], -r0
c000112c:	c00012b4 	strgth	r1, [r0], -r4
c0001130:	c00012b4 	strgth	r1, [r0], -r4
c0001134:	c00012a4 	andgt	r1, r0, r4, lsr #5
c0001138:	e3160010 	tst	r6, #16	; 0x10
c000113c:	e2882004 	add	r2, r8, #4	; 0x4
c0001140:	1a000007 	bne	c0001164 <vsprintf+0x298>
c0001144:	e2455001 	sub	r5, r5, #1	; 0x1
c0001148:	e3550000 	cmp	r5, #0	; 0x0
c000114c:	da000004 	ble	c0001164 <vsprintf+0x298>
c0001150:	e3a03020 	mov	r3, #32	; 0x20
c0001154:	e2455001 	sub	r5, r5, #1	; 0x1
c0001158:	e3550000 	cmp	r5, #0	; 0x0
c000115c:	e4c73001 	strb	r3, [r7], #1
c0001160:	cafffffb 	bgt	c0001154 <vsprintf+0x288>
c0001164:	e1a08002 	mov	r8, r2
c0001168:	e2455001 	sub	r5, r5, #1	; 0x1
c000116c:	e5183004 	ldr	r3, [r8, -#4]
c0001170:	e3550000 	cmp	r5, #0	; 0x0
c0001174:	e4c73001 	strb	r3, [r7], #1
c0001178:	da000072 	ble	c0001348 <vsprintf+0x47c>
c000117c:	e3a03020 	mov	r3, #32	; 0x20
c0001180:	e2455001 	sub	r5, r5, #1	; 0x1
c0001184:	e3550000 	cmp	r5, #0	; 0x0
c0001188:	e4c73001 	strb	r3, [r7], #1
c000118c:	cafffffb 	bgt	c0001180 <vsprintf+0x2b4>
c0001190:	ea00006c 	b	c0001348 <vsprintf+0x47c>
c0001194:	e1a0100c 	mov	r1, ip
c0001198:	e4984004 	ldr	r4, [r8], #4
c000119c:	e59f3180 	ldr	r3, [pc, #180]	; c0001324 <vsprintf+0x458>
c00011a0:	e3540000 	cmp	r4, #0	; 0x0
c00011a4:	01a04003 	moveq	r4, r3
c00011a8:	e1a00004 	mov	r0, r4
c00011ac:	eb000093 	bl	c0001400 <strnlen>
c00011b0:	e3160010 	tst	r6, #16	; 0x10
c00011b4:	1a000009 	bne	c00011e0 <vsprintf+0x314>
c00011b8:	e1a03005 	mov	r3, r5
c00011bc:	e2455001 	sub	r5, r5, #1	; 0x1
c00011c0:	e1500003 	cmp	r0, r3
c00011c4:	aa000005 	bge	c00011e0 <vsprintf+0x314>
c00011c8:	e3a02020 	mov	r2, #32	; 0x20
c00011cc:	e1a03005 	mov	r3, r5
c00011d0:	e2455001 	sub	r5, r5, #1	; 0x1
c00011d4:	e1500003 	cmp	r0, r3
c00011d8:	e4c72001 	strb	r2, [r7], #1
c00011dc:	bafffffa 	blt	c00011cc <vsprintf+0x300>
c00011e0:	e1500005 	cmp	r0, r5
c00011e4:	c3a03000 	movgt	r3, #0	; 0x0
c00011e8:	d3a03001 	movle	r3, #1	; 0x1
c00011ec:	e3750001 	cmn	r5, #1	; 0x1
c00011f0:	03a03001 	moveq	r3, #1	; 0x1
c00011f4:	e3530000 	cmp	r3, #0	; 0x0
c00011f8:	0a000012 	beq	c0001248 <vsprintf+0x37c>
c00011fc:	e3500000 	cmp	r0, #0	; 0x0
c0001200:	e2451001 	sub	r1, r5, #1	; 0x1
c0001204:	da000004 	ble	c000121c <vsprintf+0x350>
c0001208:	e1a02000 	mov	r2, r0
c000120c:	e4d43001 	ldrb	r3, [r4], #1
c0001210:	e2522001 	subs	r2, r2, #1	; 0x1
c0001214:	e4c73001 	strb	r3, [r7], #1
c0001218:	1afffffb 	bne	c000120c <vsprintf+0x340>
c000121c:	e1a03005 	mov	r3, r5
c0001220:	e1a05001 	mov	r5, r1
c0001224:	e1500003 	cmp	r0, r3
c0001228:	aa000046 	bge	c0001348 <vsprintf+0x47c>
c000122c:	e3a02020 	mov	r2, #32	; 0x20
c0001230:	e1a03005 	mov	r3, r5
c0001234:	e2455001 	sub	r5, r5, #1	; 0x1
c0001238:	e1500003 	cmp	r0, r3
c000123c:	e4c72001 	strb	r2, [r7], #1
c0001240:	bafffffa 	blt	c0001230 <vsprintf+0x364>
c0001244:	ea00003f 	b	c0001348 <vsprintf+0x47c>
c0001248:	e1530005 	cmp	r3, r5
c000124c:	aa00003d 	bge	c0001348 <vsprintf+0x47c>
c0001250:	e1a02005 	mov	r2, r5
c0001254:	e4d43001 	ldrb	r3, [r4], #1
c0001258:	e2522001 	subs	r2, r2, #1	; 0x1
c000125c:	e4c73001 	strb	r3, [r7], #1
c0001260:	1afffffb 	bne	c0001254 <vsprintf+0x388>
c0001264:	ea000037 	b	c0001348 <vsprintf+0x47c>
c0001268:	e3750001 	cmn	r5, #1	; 0x1
c000126c:	03a05008 	moveq	r5, #8	; 0x8
c0001270:	03866001 	orreq	r6, r6, #1	; 0x1
c0001274:	e1a00007 	mov	r0, r7
c0001278:	e3a02010 	mov	r2, #16	; 0x10
c000127c:	e4981004 	ldr	r1, [r8], #4
c0001280:	ea00002b 	b	c0001334 <vsprintf+0x468>
c0001284:	e350006c 	cmp	r0, #108	; 0x6c
c0001288:	e4982004 	ldr	r2, [r8], #4
c000128c:	e06a3007 	rsb	r3, sl, r7
c0001290:	e5823000 	str	r3, [r2]
c0001294:	ea00002b 	b	c0001348 <vsprintf+0x47c>
c0001298:	e3a02008 	mov	r2, #8	; 0x8
c000129c:	ea000013 	b	c00012f0 <vsprintf+0x424>
c00012a0:	e3866040 	orr	r6, r6, #64	; 0x40
c00012a4:	e3a02010 	mov	r2, #16	; 0x10
c00012a8:	ea000010 	b	c00012f0 <vsprintf+0x424>
c00012ac:	e3866002 	orr	r6, r6, #2	; 0x2
c00012b0:	ea00000e 	b	c00012f0 <vsprintf+0x424>
c00012b4:	e51b3028 	ldr	r3, [fp, -#40]
c00012b8:	e5d32000 	ldrb	r2, [r3]
c00012bc:	e3520025 	cmp	r2, #37	; 0x25
c00012c0:	13a03025 	movne	r3, #37	; 0x25
c00012c4:	14c73001 	strneb	r3, [r7], #1
c00012c8:	e51b2028 	ldr	r2, [fp, -#40]
c00012cc:	e5d23000 	ldrb	r3, [r2]
c00012d0:	e3530000 	cmp	r3, #0	; 0x0
c00012d4:	0a000002 	beq	c00012e4 <vsprintf+0x418>
c00012d8:	e5d23000 	ldrb	r3, [r2]
c00012dc:	e4c73001 	strb	r3, [r7], #1
c00012e0:	ea000018 	b	c0001348 <vsprintf+0x47c>
c00012e4:	e2423001 	sub	r3, r2, #1	; 0x1
c00012e8:	e50b3028 	str	r3, [fp, -#40]
c00012ec:	ea000015 	b	c0001348 <vsprintf+0x47c>
c00012f0:	e350006c 	cmp	r0, #108	; 0x6c
c00012f4:	0a00000c 	beq	c000132c <vsprintf+0x460>
c00012f8:	e3500068 	cmp	r0, #104	; 0x68
c00012fc:	1a000009 	bne	c0001328 <vsprintf+0x45c>
c0001300:	e3160002 	tst	r6, #2	; 0x2
c0001304:	0a000003 	beq	c0001318 <vsprintf+0x44c>
c0001308:	e0d830b2 	ldrh	r3, [r8], #2
c000130c:	e1a03803 	mov	r3, r3, lsl #16
c0001310:	e1a01843 	mov	r1, r3, asr #16
c0001314:	ea000005 	b	c0001330 <vsprintf+0x464>
c0001318:	e0d830b2 	ldrh	r3, [r8], #2
c000131c:	e1a01003 	mov	r1, r3
c0001320:	ea000002 	b	c0001330 <vsprintf+0x464>
c0001324:	c0001720 	andgt	r1, r0, r0, lsr #14
c0001328:	e3160002 	tst	r6, #2	; 0x2
c000132c:	e4981004 	ldr	r1, [r8], #4
c0001330:	e1a00007 	mov	r0, r7
c0001334:	e1a03005 	mov	r3, r5
c0001338:	e58dc000 	str	ip, [sp]
c000133c:	e58d6004 	str	r6, [sp, #4]
c0001340:	ebfffe35 	bl	c0000c1c <number>
c0001344:	e1a07000 	mov	r7, r0
c0001348:	e51b3028 	ldr	r3, [fp, -#40]
c000134c:	e2832001 	add	r2, r3, #1	; 0x1
c0001350:	e50b2028 	str	r2, [fp, -#40]
c0001354:	e5d31001 	ldrb	r1, [r3, #1]
c0001358:	e3510000 	cmp	r1, #0	; 0x0
c000135c:	1afffee6 	bne	c0000efc <vsprintf+0x30>
c0001360:	e06a0007 	rsb	r0, sl, r7
c0001364:	e3a03000 	mov	r3, #0	; 0x0
c0001368:	e5c73000 	strb	r3, [r7]
c000136c:	e91badf0 	ldmdb	fp, {r4, r5, r6, r7, r8, sl, fp, sp, pc}

c0001370 <sprintf>:
c0001370:	e1a0c00d 	mov	ip, sp
c0001374:	e92d000e 	stmdb	sp!, {r1, r2, r3}
c0001378:	e92dd800 	stmdb	sp!, {fp, ip, lr, pc}
c000137c:	e24cb010 	sub	fp, ip, #16	; 0x10
c0001380:	e59b1004 	ldr	r1, [fp, #4]
c0001384:	e28b2008 	add	r2, fp, #8	; 0x8
c0001388:	ebfffecf 	bl	c0000ecc <vsprintf>
c000138c:	e91ba800 	ldmdb	fp, {fp, sp, pc}

c0001390 <memcpy>:
c0001390:	e2522001 	subs	r2, r2, #1	; 0x1
c0001394:	54d13001 	ldrplb	r3, [r1], #1
c0001398:	54c03001 	strplb	r3, [r0], #1
c000139c:	5afffffb 	bpl	c0001390 <memcpy>
c00013a0:	e1a0f00e 	mov	pc, lr

c00013a4 <memzero>:
c00013a4:	e1a02001 	mov	r2, r1
c00013a8:	e3a01000 	mov	r1, #0	; 0x0

c00013ac <memset>:
c00013ac:	e2522001 	subs	r2, r2, #1	; 0x1
c00013b0:	54c01001 	strplb	r1, [r0], #1
c00013b4:	5afffffc 	bpl	c00013ac <memset>
c00013b8:	e1a0f00e 	mov	pc, lr

c00013bc <memeq>:
c00013bc:	e3320000 	teq	r2, #0	; 0x0
c00013c0:	03a00001 	moveq	r0, #1	; 0x1
c00013c4:	01a0f00e 	moveq	pc, lr
c00013c8:	e4d03001 	ldrb	r3, [r0], #1
c00013cc:	e4d1c001 	ldrb	ip, [r1], #1
c00013d0:	e133000c 	teq	r3, ip
c00013d4:	13a00000 	movne	r0, #0	; 0x0
c00013d8:	11a0f00e 	movne	pc, lr
c00013dc:	e2522001 	subs	r2, r2, #1	; 0x1
c00013e0:	1afffff8 	bne	c00013c8 <memeq+0xc>
c00013e4:	e3a00001 	mov	r0, #1	; 0x1
c00013e8:	e1a0f00e 	mov	pc, lr

c00013ec <strcpy>:
c00013ec:	e4d13001 	ldrb	r3, [r1], #1
c00013f0:	e4c03001 	strb	r3, [r0], #1
c00013f4:	e3330000 	teq	r3, #0	; 0x0
c00013f8:	1afffffb 	bne	c00013ec <strcpy>
c00013fc:	e1a0f00e 	mov	pc, lr

c0001400 <strnlen>:
c0001400:	e2803001 	add	r3, r0, #1	; 0x1
c0001404:	e4d02001 	ldrb	r2, [r0], #1
c0001408:	e3320000 	teq	r2, #0	; 0x0
c000140c:	12511001 	subnes	r1, r1, #1	; 0x1
c0001410:	1afffffb 	bne	c0001404 <strnlen+0x4>
c0001414:	e0400003 	sub	r0, r0, r3
c0001418:	e1a0f00e 	mov	pc, lr

c000141c <__udivsi3>:
c000141c:	e3510000 	cmp	r1, #0	; 0x0
c0001420:	0a00001f 	beq	c00014a4 <Ldiv0>
c0001424:	e3a03001 	mov	r3, #1	; 0x1
c0001428:	e3a02000 	mov	r2, #0	; 0x0
c000142c:	e1500001 	cmp	r0, r1
c0001430:	3a000019 	bcc	c000149c <Lgot_result>

c0001434 <Loop1>:
c0001434:	e3510201 	cmp	r1, #268435456	; 0x10000000
c0001438:	31510000 	cmpcc	r1, r0
c000143c:	31a01201 	movcc	r1, r1, lsl #4
c0001440:	31a03203 	movcc	r3, r3, lsl #4
c0001444:	3afffffa 	bcc	c0001434 <Loop1>

c0001448 <Lbignum>:
c0001448:	e3510102 	cmp	r1, #-2147483648	; 0x80000000
c000144c:	31510000 	cmpcc	r1, r0
c0001450:	31a01081 	movcc	r1, r1, lsl #1
c0001454:	31a03083 	movcc	r3, r3, lsl #1
c0001458:	3afffffa 	bcc	c0001448 <Lbignum>

c000145c <Loop3>:
c000145c:	e1500001 	cmp	r0, r1
c0001460:	20400001 	subcs	r0, r0, r1
c0001464:	21822003 	orrcs	r2, r2, r3
c0001468:	e15000a1 	cmp	r0, r1, lsr #1
c000146c:	204000a1 	subcs	r0, r0, r1, lsr #1
c0001470:	218220a3 	orrcs	r2, r2, r3, lsr #1
c0001474:	e1500121 	cmp	r0, r1, lsr #2
c0001478:	20400121 	subcs	r0, r0, r1, lsr #2
c000147c:	21822123 	orrcs	r2, r2, r3, lsr #2
c0001480:	e15001a1 	cmp	r0, r1, lsr #3
c0001484:	204001a1 	subcs	r0, r0, r1, lsr #3
c0001488:	218221a3 	orrcs	r2, r2, r3, lsr #3
c000148c:	e3500000 	cmp	r0, #0	; 0x0
c0001490:	11b03223 	movnes	r3, r3, lsr #4
c0001494:	11a01221 	movne	r1, r1, lsr #4
c0001498:	1affffef 	bne	c000145c <Loop3>

c000149c <Lgot_result>:
c000149c:	e1a00002 	mov	r0, r2
c00014a0:	e1a0f00e 	mov	pc, lr

c00014a4 <Ldiv0>:
c00014a4:	e52de004 	str	lr, [sp, -#4]!
c00014a8:	eb00002e 	bl	c0001568 <__div0>
c00014ac:	e3a00000 	mov	r0, #0	; 0x0
c00014b0:	e8bd8000 	ldmia	sp!, {pc}

c00014b4 <__umodsi3>:
c00014b4:	e3510000 	cmp	r1, #0	; 0x0
c00014b8:	0a000026 	beq	c0001558 <Ldiv0>
c00014bc:	e3a03001 	mov	r3, #1	; 0x1
c00014c0:	e1500001 	cmp	r0, r1
c00014c4:	31a0f00e 	movcc	pc, lr

c00014c8 <Loop1>:
c00014c8:	e3510201 	cmp	r1, #268435456	; 0x10000000
c00014cc:	31510000 	cmpcc	r1, r0
c00014d0:	31a01201 	movcc	r1, r1, lsl #4
c00014d4:	31a03203 	movcc	r3, r3, lsl #4
c00014d8:	3afffffa 	bcc	c00014c8 <Loop1>

c00014dc <Lbignum>:
c00014dc:	e3510102 	cmp	r1, #-2147483648	; 0x80000000
c00014e0:	31510000 	cmpcc	r1, r0
c00014e4:	31a01081 	movcc	r1, r1, lsl #1
c00014e8:	31a03083 	movcc	r3, r3, lsl #1
c00014ec:	3afffffa 	bcc	c00014dc <Lbignum>

c00014f0 <Loop3>:
c00014f0:	e3a02000 	mov	r2, #0	; 0x0
c00014f4:	e1500001 	cmp	r0, r1
c00014f8:	20400001 	subcs	r0, r0, r1
c00014fc:	e15000a1 	cmp	r0, r1, lsr #1
c0001500:	204000a1 	subcs	r0, r0, r1, lsr #1
c0001504:	218220e3 	orrcs	r2, r2, r3, ror #1
c0001508:	e1500121 	cmp	r0, r1, lsr #2
c000150c:	20400121 	subcs	r0, r0, r1, lsr #2
c0001510:	21822163 	orrcs	r2, r2, r3, ror #2
c0001514:	e15001a1 	cmp	r0, r1, lsr #3
c0001518:	204001a1 	subcs	r0, r0, r1, lsr #3
c000151c:	218221e3 	orrcs	r2, r2, r3, ror #3
c0001520:	e1a0c003 	mov	ip, r3
c0001524:	e3500000 	cmp	r0, #0	; 0x0
c0001528:	11b03223 	movnes	r3, r3, lsr #4
c000152c:	11a01221 	movne	r1, r1, lsr #4
c0001530:	1affffee 	bne	c00014f0 <Loop3>
c0001534:	e212220e 	ands	r2, r2, #-536870912	; 0xe0000000
c0001538:	01a0f00e 	moveq	pc, lr
c000153c:	e11201ec 	tst	r2, ip, ror #3
c0001540:	108001a1 	addne	r0, r0, r1, lsr #3
c0001544:	e112016c 	tst	r2, ip, ror #2
c0001548:	10800121 	addne	r0, r0, r1, lsr #2
c000154c:	e11200ec 	tst	r2, ip, ror #1
c0001550:	108000a1 	addne	r0, r0, r1, lsr #1
c0001554:	e1a0f00e 	mov	pc, lr

c0001558 <Ldiv0>:
c0001558:	e52de004 	str	lr, [sp, -#4]!
c000155c:	eb000001 	bl	c0001568 <__div0>
c0001560:	e3a00000 	mov	r0, #0	; 0x0
c0001564:	e8bd8000 	ldmia	sp!, {pc}

c0001568 <__div0>:
c0001568:	e92d4002 	stmdb	sp!, {r1, lr}
c000156c:	ef900014 	swi	0x00900014
c0001570:	e3700ffa 	cmn	r0, #1000	; 0x3e8
c0001574:	28bd8002 	ldmcsia	sp!, {r1, pc}
c0001578:	e3a01008 	mov	r1, #8	; 0x8
c000157c:	ef900025 	swi	0x00900025
c0001580:	e8bd8002 	ldmia	sp!, {r1, pc}
