@ Generated by gcc 2.95.3 20010315 (release) for ARM/elf
	.file	"Serial.c"
gcc2_compiled.:
.text
	.align	2
	.global	ser_init
	.type	 ser_init,function
ser_init:
	@ args = 0, pretend = 0, frame = 0
	@ frame_needed = 1, current_function_anonymous_args = 0
	mov	ip, sp
	stmfd	sp!, {fp, ip, lr, pc}
	sub	fp, ip, #4
	ldr	lr, .L9
	ldr	ip, .L9+4
	ldr	r2, .L9+8
	ldr	r1, .L9+12
	mov	r3, #1
	str	r3, [r2, #0]
	sub	r3, r3, #1
	str	r3, [r1, #0]
.L8:
	ldr	r3, [ip, #0]
	ands	r0, r3, #1
	bne	.L8
	mov	r2, #255
	ldr	r3, .L9+16
	mov	r1, #8
	str	r0, [lr, #0]
	str	r2, [r3], #-28
	str	r1, [r3, #0]
	sub	r1, r1, #7
	ldr	r2, .L9+20
	add	r3, r3, #8
	str	r0, [r2, #0]
	mov	r2, #3
	str	r1, [r3, #0]
	str	r2, [lr, #0]
	ldmea	fp, {fp, sp, pc}
.L10:
	.align	2
.L9:
	.word	-1476329460
	.word	-1476329440
	.word	-2147352480
	.word	-2147352476
	.word	-1476329444
	.word	-1476329468
.Lfe1:
	.size	 ser_init,.Lfe1-ser_init
	.align	2
	.global	ser_read
	.type	 ser_read,function
ser_read:
	@ args = 0, pretend = 0, frame = 0
	@ frame_needed = 1, current_function_anonymous_args = 0
	mov	ip, sp
	stmfd	sp!, {r4, r5, r6, r7, r8, fp, ip, lr, pc}
	sub	fp, ip, #4
	mov	r8, r0
	mov	r6, #0
	mov	r7, r1
	cmp	r6, r7
	bge	.L13
.L14:
	ldr	r3, .L22
	ldr	r4, [r3, #0]
	tst	r4, #2
	bne	.L16
	mov	r5, r3
.L17:
	mov	r0, #0
	ldr	r4, [r5, #0]
	bl	timer_poll
	cmp	r0, #0
	beq	.L15
	mvn	r0, #0
	ldmea	fp, {r4, r5, r6, r7, r8, fp, sp, pc}
.L15:
	tst	r4, #2
	beq	.L17
.L16:
	ldr	r3, .L22+4
	add	r6, r6, #1
	ldr	r2, [r3, #0]
	cmp	r6, r7
	strb	r2, [r8], #1
	blt	.L14
.L13:
	mov	r0, r6
	ldmea	fp, {r4, r5, r6, r7, r8, fp, sp, pc}
.L23:
	.align	2
.L22:
	.word	-1476329440
	.word	-1476329452
.Lfe2:
	.size	 ser_read,.Lfe2-ser_read
	.align	2
	.global	ser_write
	.type	 ser_write,function
ser_write:
	@ args = 0, pretend = 0, frame = 0
	@ frame_needed = 1, current_function_anonymous_args = 0
	mov	ip, sp
	stmfd	sp!, {fp, ip, lr, pc}
	sub	fp, ip, #4
	cmp	r1, #0
	ble	.L26
	ldr	ip, .L33
	ldr	lr, .L33+4
.L27:
	ldrb	r3, [r0], #1
	sub	r1, r1, #1
	and	r2, r3, #255
.L31:
	ldr	r3, [ip, #0]
	tst	r3, #4
	beq	.L31
	cmp	r1, #0
	str	r2, [lr, #0]
	bgt	.L27
.L26:
	ldmea	fp, {fp, sp, pc}
.L34:
	.align	2
.L33:
	.word	-1476329440
	.word	-1476329452
.Lfe3:
	.size	 ser_write,.Lfe3-ser_write
	.align	2
	.global	ser_stat
	.type	 ser_stat,function
ser_stat:
	@ args = 0, pretend = 0, frame = 0
	@ frame_needed = 1, current_function_anonymous_args = 0
	mov	ip, sp
	stmfd	sp!, {fp, ip, lr, pc}
	sub	fp, ip, #4
	ldr	r3, .L36
	ldr	r0, [r3, #0]
	mov	r0, r0, lsr #1
	and	r0, r0, #1
	ldmea	fp, {fp, sp, pc}
.L37:
	.align	2
.L36:
	.word	-1476329440
.Lfe4:
	.size	 ser_stat,.Lfe4-ser_stat
	.ident	"GCC: (GNU) 2.95.3 20010315 (release)"
